mkdir -p ./obj
make ./obj/inst_ram.coe ./obj/test.s
make[1]: Entering directory '/home/u/prjs/soc2/simulation/soc2_test2_ccode/testcode'
loongarch32r-linux-gnusf-gcc \
	-nostdinc -nostdlib -D_KERNEL -fno-builtin -D__loongarch32 -fno-use-linker-plugin \
	-DMEMSTART=0x10000000 -DMEMSIZE=0x04000 -DCPU_COUNT_PER_US=1000     \
	main.c -g -o ./obj/main.o
loongarch32r-linux-gnusf-ld ./obj/start.o ./obj/main.o -T bin.lds -o ./obj/main.elf
loongarch32r-linux-gnusf-objcopy -O binary -j .text ./obj/main.elf ./obj/main.bin
loongarch32r-linux-gnusf-objcopy -O binary -j .data ./obj/main.elf ./obj/main.data
cd ./obj && ./convert && cp inst_ram.mif ../../sram.mif 
06
00
80
02
06
02
00
14
c6
40
80
02
07
04
81
02
c7
00
80
29
05
68
81
02
03
01
38
14
63
f0
bf
02
00
c8
0c
54
00
00
00
50
00
00
40
03
00
00
40
03
00
00
40
03
00
00
40
03
00
00
40
03
63
80
bf
02
76
70
80
29
76
80
80
02
c0
b2
bf
29
c0
a2
bf
29
c0
92
bf
29
c0
b2
bf
29
00
40
00
50
c0
a2
bf
29
00
20
00
50
cd
92
bf
28
cc
b2
bf
28
ac
31
10
00
cc
92
bf
29
cc
a2
bf
28
8c
05
80
02
cc
a2
bf
29
cd
a2
bf
28
0c
24
80
02
8d
dd
ff
67
cc
b2
bf
28
8c
05
80
02
cc
b2
bf
29
cd
b2
bf
28
0c
03
00
14
8c
7d
9a
03
8d
b9
ff
67
00
00
40
03
76
70
80
28
63
80
80
02
20
00
00
4c
63
80
bf
02
76
70
80
29
76
80
80
02
c0
b2
bf
29
c0
92
bf
29
c0
a2
bf
29
c0
b2
bf
29
00
20
00
50
cd
a2
bf
28
cc
b2
bf
28
ac
31
10
00
cc
a2
bf
29
cc
b2
bf
28
8c
05
80
02
cc
b2
bf
29
cd
b2
bf
28
4c
0f
00
14
8c
7d
84
03
8d
d9
ff
67
00
00
40
03
76
70
80
28
63
80
80
02
20
00
00
4c
63
c0
bf
02
61
30
80
29
76
20
80
29
76
40
80
02
ff
1b
ff
57
0c
02
00
14
8c
41
80
03
8d
82
82
14
ad
05
85
03
8d
01
80
29
ff
03
ff
57
0c
02
00
14
8c
51
80
03
8d
84
84
14
ad
09
89
03
8d
01
80
29
ff
eb
fe
57
0c
02
00
14
8c
61
80
03
8d
86
86
14
ad
0d
8d
03
8d
01
80
29
ff
d3
fe
57
0c
02
00
14
8c
71
80
03
8d
88
88
14
ad
11
91
03
8d
01
80
29
ff
bb
fe
57
0c
02
00
14
8c
81
80
03
8d
8a
8a
14
ad
15
95
03
8d
01
80
29
ff
a3
fe
57
0c
02
00
14
8c
91
80
03
8d
8c
8c
14
ad
19
99
03
8d
01
80
29
ff
8b
fe
57
0c
02
00
14
8c
a1
80
03
8d
8e
8e
14
ad
1d
9d
03
8d
01
80
29
ff
73
fe
57
0c
02
00
14
8c
a1
80
03
4d
40
40
14
ad
81
80
03
8d
01
80
29
ff
5b
fe
57
0c
02
00
14
8c
91
80
03
4d
40
40
14
ad
81
80
03
8d
01
80
29
ff
43
fe
57
0c
02
00
14
8c
81
80
03
4d
40
40
14
ad
81
80
03
8d
01
80
29
ff
2b
fe
57
0c
02
00
14
8c
71
80
03
4d
40
40
14
ad
81
80
03
8d
01
80
29
ff
13
fe
57
0c
02
00
14
8c
61
80
03
4d
40
40
14
ad
81
80
03
8d
01
80
29
ff
fb
fd
57
0c
02
00
14
8c
51
80
03
4d
40
40
14
ad
81
80
03
8d
01
80
29
ff
e3
fd
57
0c
02
00
14
8c
41
80
03
4d
40
40
14
ad
81
80
03
8d
01
80
29
00
00
40
03
61
30
80
28
76
20
80
28
63
40
80
02
20
00
00
4c
63
80
bf
02
76
70
80
29
76
80
80
02
c4
b2
bf
29
c5
a2
bf
29
c6
92
bf
29
cc
b2
bf
28
4d
40
40
14
ad
81
80
03
8d
01
80
29
cc
b2
bf
28
8c
11
80
02
4d
40
40
14
ad
81
80
03
8d
01
80
29
cc
b2
bf
28
8c
21
80
02
4d
40
b0
14
ad
81
80
03
8d
01
80
29
cc
b2
bf
28
8c
31
80
02
ad
b0
b0
14
ad
61
a1
03
8d
01
80
29
cc
b2
bf
28
8c
41
80
02
ad
b0
b0
14
ad
61
a1
03
8d
01
80
29
cc
b2
bf
28
8c
51
80
02
4d
40
40
14
ad
61
81
03
8d
01
80
29
cc
b2
bf
28
8c
41
81
02
4d
40
40
14
ad
81
80
03
8d
01
80
29
cc
b2
bf
28
8c
51
81
02
4d
40
40
14
ad
81
80
03
8d
01
80
29
cc
b2
bf
28
8c
61
81
02
4d
b0
b0
14
ad
81
80
03
8d
01
80
29
cc
b2
bf
28
8c
71
81
02
ad
b0
b0
14
ad
81
a0
03
8d
01
80
29
cc
b2
bf
28
8c
81
81
02
ad
b0
b0
14
ad
61
a1
03
8d
01
80
29
cc
b2
bf
28
8c
91
81
02
ad
40
40
14
ad
61
a1
03
8d
01
80
29
cc
b2
bf
28
8c
81
82
02
4d
40
40
14
ad
81
80
03
8d
01
80
29
cc
b2
bf
28
8c
91
82
02
4d
40
40
14
ad
81
80
03
8d
01
80
29
cc
b2
bf
28
8c
a1
82
02
4d
b0
b0
14
ad
81
80
03
8d
01
80
29
cc
b2
bf
28
8c
b1
82
02
ad
b0
b0
14
ad
61
a1
03
8d
01
80
29
cc
b2
bf
28
8c
c1
82
02
ad
b0
b0
14
ad
61
a1
03
8d
01
80
29
cc
b2
bf
28
8c
d1
82
02
ad
b0
40
14
ad
61
a1
03
8d
01
80
29
cc
b2
bf
28
8c
c1
83
02
4d
40
40
14
ad
81
80
03
8d
01
80
29
cc
b2
bf
28
8c
d1
83
02
4d
40
40
14
ad
81
80
03
8d
01
80
29
cc
b2
bf
28
8c
e1
83
02
4d
b0
b0
14
ad
81
80
03
8d
01
80
29
cc
b2
bf
28
8c
f1
83
02
ad
b0
b0
14
ad
61
a1
03
8d
01
80
29
cc
b2
bf
28
8c
01
84
02
ad
b0
b0
14
ad
61
a1
03
8d
01
80
29
cc
b2
bf
28
8c
11
84
02
ad
b0
40
14
ad
61
a1
03
8d
01
80
29
cc
b2
bf
28
8c
01
85
02
4d
40
40
14
ad
81
80
03
8d
01
80
29
cc
b2
bf
28
8c
11
85
02
4d
40
40
14
ad
81
80
03
8d
01
80
29
cc
b2
bf
28
8c
21
85
02
4d
b0
b0
14
ad
81
80
03
8d
01
80
29
cc
b2
bf
28
8c
31
85
02
ad
b0
b0
14
ad
61
a1
03
8d
01
80
29
cc
b2
bf
28
8c
41
85
02
ad
b0
b0
14
ad
61
a1
03
8d
01
80
29
cc
b2
bf
28
8c
51
85
02
ad
b0
40
14
ad
61
a1
03
8d
01
80
29
cc
b2
bf
28
8c
41
86
02
4d
40
40
14
ad
81
80
03
8d
01
80
29
cc
b2
bf
28
8c
51
86
02
4d
40
40
14
ad
81
80
03
8d
01
80
29
cc
b2
bf
28
8c
61
86
02
4d
b0
b0
14
ad
81
80
03
8d
01
80
29
cc
b2
bf
28
8c
71
86
02
ad
b0
b0
14
ad
61
a1
03
8d
01
80
29
cc
b2
bf
28
8c
81
86
02
4d
40
40
14
ad
61
81
03
8d
01
80
29
cc
b2
bf
28
8c
91
86
02
4d
40
40
14
ad
81
80
03
8d
01
80
29
cc
b2
bf
28
8c
81
87
02
4d
40
40
14
ad
61
81
03
8d
01
80
29
cc
b2
bf
28
8c
91
87
02
4d
40
40
14
ad
81
80
03
8d
01
80
29
cc
b2
bf
28
8c
a1
87
02
ad
b0
b0
14
ad
81
a0
03
8d
01
80
29
cc
b2
bf
28
8c
b1
87
02
ad
b0
b0
14
ad
61
a1
03
8d
01
80
29
cc
b2
bf
28
8c
c1
87
02
ad
b0
b0
14
ad
61
a1
03
8d
01
80
29
cc
b2
bf
28
8c
d1
87
02
4d
40
40
14
ad
81
80
03
8d
01
80
29
cc
b2
bf
28
8c
c1
88
02
4d
40
40
14
ad
61
81
03
8d
01
80
29
cc
b2
bf
28
8c
d1
88
02
4d
40
40
14
ad
81
80
03
8d
01
80
29
cc
b2
bf
28
8c
e1
88
02
ad
b0
b0
14
ad
61
a1
03
8d
01
80
29
cc
b2
bf
28
8c
f1
88
02
ad
b0
40
14
ad
61
a1
03
8d
01
80
29
cc
b2
bf
28
8c
01
89
02
4d
40
40
14
ad
81
80
03
8d
01
80
29
cc
b2
bf
28
8c
11
89
02
4d
40
40
14
ad
81
80
03
8d
01
80
29
cc
b2
bf
28
8c
01
8a
02
ad
40
40
14
ad
61
a1
03
8d
01
80
29
cc
b2
bf
28
8c
11
8a
02
4d
40
b0
14
ad
81
80
03
8d
01
80
29
cc
b2
bf
28
8c
21
8a
02
ad
b0
b0
14
ad
61
a1
03
8d
01
80
29
cc
b2
bf
28
8c
31
8a
02
ad
b0
40
14
ad
61
a1
03
8d
01
80
29
cc
b2
bf
28
8c
41
8a
02
4d
40
40
14
ad
81
80
03
8d
01
80
29
cc
b2
bf
28
8c
51
8a
02
4d
40
40
14
ad
81
80
03
8d
01
80
29
cc
b2
bf
28
8c
41
8b
02
ad
b0
b0
14
ad
61
a1
03
8d
01
80
29
cc
b2
bf
28
8c
51
8b
02
4d
b0
b0
14
ad
81
80
03
8d
01
80
29
cc
b2
bf
28
8c
61
8b
02
ad
b0
b0
14
ad
61
a1
03
8d
01
80
29
cc
b2
bf
28
8c
71
8b
02
ad
b0
b0
14
ad
61
a1
03
8d
01
80
29
cc
b2
bf
28
8c
81
8b
02
ad
40
40
14
ad
61
a1
03
8d
01
80
29
cc
b2
bf
28
8c
91
8b
02
4d
40
40
14
ad
81
80
03
8d
01
80
29
cc
b2
bf
28
8c
81
8c
02
ad
b0
b0
14
ad
61
a1
03
8d
01
80
29
cc
b2
bf
28
8c
91
8c
02
ad
b0
b0
14
ad
61
a1
03
8d
01
80
29
cc
b2
bf
28
8c
a1
8c
02
ad
b0
b0
14
ad
61
a1
03
8d
01
80
29
cc
b2
bf
28
8c
b1
8c
02
ad
b0
b0
14
ad
61
a1
03
8d
01
80
29
cc
b2
bf
28
8c
c1
8c
02
ad
40
40
14
ad
81
a0
03
8d
01
80
29
cc
b2
bf
28
8c
d1
8c
02
4d
40
40
14
ad
81
80
03
8d
01
80
29
cc
b2
bf
28
8c
c1
8d
02
ad
b0
b0
14
ad
81
a0
03
8d
01
80
29
cc
b2
bf
28
8c
d1
8d
02
ad
b0
b0
14
ad
61
a1
03
8d
01
80
29
cc
b2
bf
28
8c
e1
8d
02
ad
b0
b0
14
ad
61
a1
03
8d
01
80
29
cc
b2
bf
28
8c
f1
8d
02
ad
b0
b0
14
ad
61
a1
03
8d
01
80
29
cc
b2
bf
28
8c
01
8e
02
4d
40
40
14
ad
81
80
03
8d
01
80
29
cc
b2
bf
28
8c
11
8e
02
4d
40
40
14
ad
81
80
03
8d
01
80
29
cc
b2
bf
28
8c
01
8f
02
4d
b0
b0
14
ad
81
80
03
8d
01
80
29
cc
b2
bf
28
8c
11
8f
02
ad
b0
b0
14
ad
61
a1
03
8d
01
80
29
cc
b2
bf
28
8c
21
8f
02
ad
b0
b0
14
ad
61
a1
03
8d
01
80
29
cc
b2
bf
28
8c
31
8f
02
ad
b0
b0
14
ad
61
a1
03
8d
01
80
29
cc
b2
bf
28
8c
41
8f
02
4d
40
40
14
ad
81
80
03
8d
01
80
29
cc
b2
bf
28
8c
51
8f
02
4d
40
40
14
ad
81
80
03
8d
01
80
29
cc
b2
bf
28
8c
41
90
02
4d
40
b0
14
ad
81
80
03
8d
01
80
29
cc
b2
bf
28
8c
51
90
02
ad
b0
b0
14
ad
61
a1
03
8d
01
80
29
cc
b2
bf
28
8c
61
90
02
ad
b0
b0
14
ad
61
a1
03
8d
01
80
29
cc
b2
bf
28
8c
71
90
02
ad
b0
40
14
ad
61
a1
03
8d
01
80
29
cc
b2
bf
28
8c
81
90
02
4d
40
40
14
ad
81
80
03
8d
01
80
29
cc
b2
bf
28
8c
91
90
02
4d
40
40
14
ad
81
80
03
8d
01
80
29
cc
b2
bf
28
8c
81
91
02
4d
40
40
14
ad
81
80
03
8d
01
80
29
cc
b2
bf
28
8c
91
91
02
ad
b0
b0
14
ad
61
a1
03
8d
01
80
29
cc
b2
bf
28
8c
a1
91
02
ad
b0
b0
14
ad
61
a1
03
8d
01
80
29
cc
b2
bf
28
8c
b1
91
02
ad
40
40
14
ad
61
a1
03
8d
01
80
29
cc
b2
bf
28
8c
c1
91
02
4d
40
40
14
ad
81
80
03
8d
01
80
29
cc
b2
bf
28
8c
d1
91
02
4d
40
40
14
ad
81
80
03
8d
01
80
29
cc
b2
bf
28
8c
c1
92
02
4d
40
40
14
ad
81
80
03
8d
01
80
29
cc
b2
bf
28
8c
d1
92
02
ad
b0
b0
14
ad
81
a0
03
8d
01
80
29
cc
b2
bf
28
8c
e1
92
02
ad
b0
40
14
ad
81
a0
03
8d
01
80
29
cc
b2
bf
28
8c
f1
92
02
4d
40
40
14
ad
81
80
03
8d
01
80
29
cc
b2
bf
28
8c
01
93
02
4d
40
40
14
ad
81
80
03
8d
01
80
29
cc
b2
bf
28
8c
11
93
02
4d
40
40
14
ad
81
80
03
8d
01
80
29
cc
b2
bf
28
8c
01
94
02
4d
40
40
14
ad
81
80
03
8d
01
80
29
cc
b2
bf
28
8c
11
94
02
ad
b0
40
14
ad
81
a0
03
8d
01
80
29
cc
b2
bf
28
8c
21
94
02
4d
b0
40
14
ad
81
80
03
8d
01
80
29
cc
b2
bf
28
8c
31
94
02
4d
40
40
14
ad
81
80
03
8d
01
80
29
cc
b2
bf
28
8c
41
94
02
4d
40
40
14
ad
81
80
03
8d
01
80
29
cc
b2
bf
28
8c
51
94
02
4d
40
40
14
ad
81
80
03
8d
01
80
29
cc
b2
bf
28
8c
41
95
02
4d
40
40
14
ad
81
80
03
8d
01
80
29
cc
b2
bf
28
8c
51
95
02
ad
40
40
14
ad
81
a0
03
8d
01
80
29
cc
b2
bf
28
8c
61
95
02
4d
b0
40
14
ad
81
80
03
8d
01
80
29
cc
b2
bf
28
8c
71
95
02
4d
40
40
14
ad
81
80
03
8d
01
80
29
cc
b2
bf
28
8c
81
95
02
4d
40
40
14
ad
81
80
03
8d
01
80
29
cc
b2
bf
28
8c
91
95
02
4d
40
40
14
ad
81
80
03
8d
01
80
29
cc
b2
bf
28
8c
81
96
02
4d
40
40
14
ad
81
80
03
8d
01
80
29
cc
b2
bf
28
8c
91
96
02
ad
b0
40
14
ad
81
a0
03
8d
01
80
29
cc
b2
bf
28
8c
a1
96
02
4d
b0
b0
14
ad
81
80
03
8d
01
80
29
cc
b2
bf
28
8c
b1
96
02
4d
40
40
14
ad
81
80
03
8d
01
80
29
cc
b2
bf
28
8c
c1
96
02
4d
40
40
14
ad
81
80
03
8d
01
80
29
cc
b2
bf
28
8c
d1
96
02
4d
40
40
14
ad
81
80
03
8d
01
80
29
00
00
40
03
76
70
80
28
63
80
80
02
20
00
00
4c
63
40
bf
02
76
b0
80
29
76
c0
80
02
c4
72
bf
29
c5
62
bf
29
c6
52
bf
29
c0
b2
bf
29
c0
b2
bf
29
00
38
00
50
cc
b2
bf
28
8c
89
40
00
cd
62
bf
28
ad
31
10
00
cc
b2
bf
28
8c
89
40
00
ce
72
bf
28
cc
31
10
00
ad
01
80
28
8d
01
80
29
cc
b2
bf
28
8c
05
80
02
cc
b2
bf
29
cd
b2
bf
28
cc
52
bf
28
ac
c5
ff
63
00
00
40
03
76
b0
80
28
63
c0
80
02
20
00
00
4c
63
c0
be
02
61
30
81
29
76
20
81
29
76
40
81
02
c4
32
bf
29
c5
22
bf
29
c6
12
bf
29
c7
02
bf
29
c8
f2
be
29
c9
e2
be
29
cc
02
bf
28
cc
a2
bf
29
cc
e2
be
28
8c
89
44
00
cc
92
bf
29
cd
22
bf
28
0c
40
81
02
ad
31
1c
00
ce
12
bf
28
0c
f0
bf
02
cc
b1
14
00
ac
31
10
00
cd
32
bf
28
ac
31
10
00
cc
82
bf
29
c0
b2
bf
29
c0
b2
bf
29
00
54
00
50
cd
b2
bf
28
0c
40
81
02
ac
31
1c
00
cd
82
bf
28
ac
31
10
00
cc
72
bf
29
cd
92
bf
28
cc
b2
bf
28
ac
31
1c
00
8c
89
40
00
cd
a2
bf
28
ac
31
10
00
cc
62
bf
29
c6
92
bf
28
c5
62
bf
28
c4
72
bf
28
ff
df
fe
57
cc
b2
bf
28
8c
05
80
02
cc
b2
bf
29
cd
b2
bf
28
cc
f2
be
28
ac
a9
ff
63
00
00
40
03
61
30
81
28
76
20
81
28
63
40
81
02
20
00
00
4c
63
c0
bf
02
61
30
80
29
76
20
80
29
76
40
80
02
09
60
80
02
08
4c
80
02
0c
00
38
14
87
d1
bd
03
06
20
80
02
05
14
80
02
04
02
00
14
ff
f7
fe
57
ff
a3
f3
57
09
60
80
02
08
4c
80
02
2c
00
38
14
87
01
85
03
06
20
80
02
05
14
80
02
04
02
00
14
ff
d3
fe
57
09
60
80
02
08
4c
80
02
0c
00
38
14
87
a1
b6
03
06
20
80
02
05
14
80
02
04
02
00
14
ff
b3
fe
57
ff
5f
f3
57
ff
9b
ff
53
20
20
20
20
20
20
20
20
20
20
20
58
58
58
58
58
58
58
58
58
58
20
20
20
20
20
20
20
20
20
20
20
20
20
58
58
20
58
58
58
58
58
58
58
58
58
20
20
20
20
20
20
20
20
20
20
20
20
58
58
58
58
58
58
58
58
58
58
58
58
20
20
20
20
20
20
20
20
20
20
20
20
58
58
58
58
58
58
58
58
58
58
58
58
20
20
20
20
20
20
20
20
20
20
20
20
58
58
58
58
58
58
58
58
58
58
58
58
20
20
20
20
20
20
20
20
20
20
20
20
58
58
58
58
58
58
20
20
20
20
20
20
20
20
58
20
20
20
20
20
20
20
20
58
58
58
58
58
58
58
58
58
58
20
20
20
20
20
58
20
20
20
20
20
20
20
58
58
58
58
58
58
20
20
20
20
20
20
20
20
20
20
58
58
20
20
20
20
20
58
58
58
58
58
58
58
20
20
20
20
20
20
20
20
20
20
58
58
58
58
20
20
58
58
58
58
58
58
58
58
58
58
20
20
20
20
20
20
20
20
58
58
58
58
58
58
58
58
58
58
58
58
58
58
20
58
20
20
20
20
20
20
20
20
20
58
58
58
58
58
58
58
58
58
58
58
58
58
20
20
20
20
20
20
20
20
20
20
20
20
58
58
58
58
58
58
58
58
58
58
58
58
20
20
20
20
20
20
20
20
20
20
20
20
20
58
58
58
58
58
58
58
58
58
58
20
20
20
20
20
20
20
20
20
20
20
20
20
20
20
58
58
58
58
58
58
58
58
20
20
20
20
20
20
20
20
20
20
20
20
20
20
20
20
20
58
58
58
20
58
58
20
20
20
20
20
20
20
20
20
20
20
20
20
20
20
20
20
20
58
58
20
20
20
58
58
20
20
20
20
20
20
20
20
20
20
20
20
20
20
20
20
20
58
20
20
20
20
20
20
20
20
20
20
20
20
20
20
20
20
20
20
20
20
20
20
20
58
58
20
20
20
20
20
20
20
20
20
20
20
20
20
20
20
20
20
00
00
00
00
20
20
20
20
20
20
20
20
20
20
20
58
58
58
58
58
58
58
58
58
58
20
20
20
20
20
20
20
20
20
20
20
20
20
58
58
20
58
58
58
58
58
58
58
58
58
20
20
20
20
20
20
20
20
20
20
20
20
58
58
58
58
58
58
58
58
58
58
58
58
20
20
20
20
20
20
20
20
20
20
20
20
58
58
58
58
58
58
58
58
58
58
58
58
20
20
20
20
20
20
20
20
20
20
20
20
58
58
58
58
58
58
58
58
58
58
58
58
20
20
20
20
20
20
20
20
20
20
20
20
58
58
58
58
58
58
20
20
20
20
20
20
20
20
58
20
20
20
20
20
20
20
20
58
58
58
58
58
58
58
58
58
58
20
20
20
20
20
58
20
20
20
20
20
20
20
58
58
58
58
58
58
20
20
20
20
20
20
20
20
20
20
58
58
20
20
20
20
20
58
58
58
58
58
58
58
20
20
20
20
20
20
20
20
20
20
58
58
58
58
20
20
58
58
58
58
58
58
58
58
58
58
20
20
20
20
20
20
20
20
58
58
58
58
58
58
58
58
58
58
58
58
58
58
20
58
20
20
20
20
20
20
20
20
20
58
58
58
58
58
58
58
58
58
58
58
58
58
20
20
20
20
20
20
20
20
20
20
20
20
58
58
58
58
58
58
58
58
58
58
58
58
20
20
20
20
20
20
20
20
20
20
20
20
20
58
58
58
58
58
58
58
58
58
58
20
20
20
20
20
20
20
20
20
20
20
20
20
20
20
58
58
58
58
58
58
58
58
20
20
20
20
20
20
20
20
20
20
20
20
20
20
20
20
20
58
58
20
20
58
58
20
20
20
20
20
20
20
20
20
20
20
20
20
20
20
20
20
20
20
58
58
20
20
58
20
20
20
20
20
20
20
20
20
20
20
20
20
20
20
20
20
20
20
20
20
20
20
58
20
20
20
20
20
20
20
20
20
20
20
20
20
20
20
20
20
20
20
20
20
20
20
58
58
20
20
20
20
20
20
20
20
20
20
20
20
00
00
00
00
20
20
20
20
20
20
20
20
20
20
20
20
20
20
20
20
20
20
20
20
20
20
20
20
20
20
20
20
20
20
20
20
20
20
20
20
20
20
20
20
20
20
20
20
20
20
20
20
20
20
20
20
20
20
20
20
20
20
20
20
20
20
20
20
20
20
20
20
20
20
20
20
20
20
20
20
20
20
20
20
20
20
20
20
20
20
20
20
20
20
20
20
20
20
20
20
20
20
20
20
20
20
20
20
20
20
20
20
20
20
20
20
20
20
20
20
20
20
20
20
20
20
20
20
20
20
20
20
20
20
20
20
20
20
20
20
20
20
20
20
20
20
20
20
20
20
20
20
20
20
20
20
20
20
20
20
20
20
20
20
20
20
20
20
20
20
20
20
20
20
20
20
20
20
20
20
20
20
20
20
20
20
20
20
20
20
20
20
20
20
20
20
20
20
20
20
20
20
20
20
20
20
20
20
20
20
20
20
20
20
20
20
20
20
20
20
20
20
20
20
20
20
20
20
20
20
20
20
20
20
20
20
20
20
20
20
20
20
20
20
20
20
20
20
20
20
20
20
20
20
20
20
20
20
20
20
20
20
20
20
20
20
20
20
20
20
20
20
20
20
20
20
20
20
20
20
20
20
20
20
20
20
20
20
20
20
20
20
20
20
20
20
20
20
20
20
20
20
20
20
20
20
20
20
20
20
20
20
20
20
20
20
20
20
20
20
20
20
20
20
20
20
20
20
20
20
20
20
20
20
20
20
20
20
20
20
20
20
20
20
20
20
20
20
20
20
20
20
20
20
20
20
20
20
20
20
20
20
20
20
20
20
20
20
20
20
20
20
20
20
20
20
20
20
20
20
20
20
20
20
20
20
20
20
20
20
20
20
20
20
20
20
20
20
20
20
20
20
20
20
20
20
20
20
20
20
20
20
20
20
20
20
20
20
20
20
20
20
20
20
20
20
20
20
20
20
20
20
20
20
20
20
20
20
20
20
20
20
20
20
20
20
20
20
20
20
20
20
20
20
20
20
20
20
20
20
00
loongarch32r-linux-gnusf-objdump -alD ./obj/main.elf > ./obj/test.s
make[1]: Leaving directory '/home/u/prjs/soc2/simulation/soc2_test2_ccode/testcode'

obj/main.elf:     file format elf32-loongarch


Disassembly of section .eh_frame_hdr:

1c000000 <__GNU_EH_FRAME_HDR-0x10dfc>:
1c000000:	3b031b01 	0x3b031b01
1c000004:	00007080 	0x00007080
1c000008:	00000007 	0x00000007
1c00000c:	fffff2d8 	0xfffff2d8
1c000010:	00007094 	0x00007094
1c000014:	fffff354 	0xfffff354
1c000018:	000070c8 	0x000070c8
1c00001c:	fffff3b0 	0xfffff3b0
1c000020:	000070fc 	0x000070fc
1c000024:	fffff524 	0xfffff524
1c000028:	00007138 	0x00007138
1c00002c:	fffffe30 	0xfffffe30
1c000030:	0000716c 	0x0000716c
1c000034:	fffffea4 	0xfffffea4
1c000038:	000071a0 	0x000071a0
1c00003c:	ffffff84 	0xffffff84
1c000040:	000071dc 	0x000071dc

Disassembly of section .text:

1c000044 <_start>:
1c000044:	02800006 	addi.w	$r6,$r0,0
1c000048:	14000206 	lu12i.w	$r6,16(0x10)
1c00004c:	028040c6 	addi.w	$r6,$r6,16(0x10)
1c000050:	02810407 	addi.w	$r7,$r0,65(0x41)
1c000054:	298000c7 	st.w	$r7,$r6,0
1c000058:	02816805 	addi.w	$r5,$r0,90(0x5a)
1c00005c:	14380103 	lu12i.w	$r3,114696(0x1c008)
1c000060:	02bff063 	addi.w	$r3,$r3,-4(0xffc)
1c000064:	540cc800 	bl	3272(0xcc8) # 1c000d2c <main>

1c000068 <loop>:
1c000068:	50000000 	b	0 # 1c000068 <loop>
1c00006c:	03400000 	andi	$r0,$r0,0x0
1c000070:	03400000 	andi	$r0,$r0,0x0
1c000074:	03400000 	andi	$r0,$r0,0x0
1c000078:	03400000 	andi	$r0,$r0,0x0
1c00007c:	03400000 	andi	$r0,$r0,0x0

1c000080 <delay>:
1c000080:	02bf8063 	addi.w	$r3,$r3,-32(0xfe0)
1c000084:	29807076 	st.w	$r22,$r3,28(0x1c)
1c000088:	02808076 	addi.w	$r22,$r3,32(0x20)
1c00008c:	29bfb2c0 	st.w	$r0,$r22,-20(0xfec)
1c000090:	29bfa2c0 	st.w	$r0,$r22,-24(0xfe8)
1c000094:	29bf92c0 	st.w	$r0,$r22,-28(0xfe4)
1c000098:	29bfb2c0 	st.w	$r0,$r22,-20(0xfec)
1c00009c:	50004000 	b	64(0x40) # 1c0000dc <delay+0x5c>
1c0000a0:	29bfa2c0 	st.w	$r0,$r22,-24(0xfe8)
1c0000a4:	50002000 	b	32(0x20) # 1c0000c4 <delay+0x44>
1c0000a8:	28bf92cd 	ld.w	$r13,$r22,-28(0xfe4)
1c0000ac:	28bfb2cc 	ld.w	$r12,$r22,-20(0xfec)
1c0000b0:	001031ac 	add.w	$r12,$r13,$r12
1c0000b4:	29bf92cc 	st.w	$r12,$r22,-28(0xfe4)
1c0000b8:	28bfa2cc 	ld.w	$r12,$r22,-24(0xfe8)
1c0000bc:	0280058c 	addi.w	$r12,$r12,1(0x1)
1c0000c0:	29bfa2cc 	st.w	$r12,$r22,-24(0xfe8)
1c0000c4:	28bfa2cd 	ld.w	$r13,$r22,-24(0xfe8)
1c0000c8:	0280240c 	addi.w	$r12,$r0,9(0x9)
1c0000cc:	67ffdd8d 	bge	$r12,$r13,-36(0x3ffdc) # 1c0000a8 <delay+0x28>
1c0000d0:	28bfb2cc 	ld.w	$r12,$r22,-20(0xfec)
1c0000d4:	0280058c 	addi.w	$r12,$r12,1(0x1)
1c0000d8:	29bfb2cc 	st.w	$r12,$r22,-20(0xfec)
1c0000dc:	28bfb2cd 	ld.w	$r13,$r22,-20(0xfec)
1c0000e0:	1400030c 	lu12i.w	$r12,24(0x18)
1c0000e4:	039a7d8c 	ori	$r12,$r12,0x69f
1c0000e8:	67ffb98d 	bge	$r12,$r13,-72(0x3ffb8) # 1c0000a0 <delay+0x20>
1c0000ec:	03400000 	andi	$r0,$r0,0x0
1c0000f0:	28807076 	ld.w	$r22,$r3,28(0x1c)
1c0000f4:	02808063 	addi.w	$r3,$r3,32(0x20)
1c0000f8:	4c000020 	jirl	$r0,$r1,0

1c0000fc <delay_short>:
1c0000fc:	02bf8063 	addi.w	$r3,$r3,-32(0xfe0)
1c000100:	29807076 	st.w	$r22,$r3,28(0x1c)
1c000104:	02808076 	addi.w	$r22,$r3,32(0x20)
1c000108:	29bfb2c0 	st.w	$r0,$r22,-20(0xfec)
1c00010c:	29bf92c0 	st.w	$r0,$r22,-28(0xfe4)
1c000110:	29bfa2c0 	st.w	$r0,$r22,-24(0xfe8)
1c000114:	29bfb2c0 	st.w	$r0,$r22,-20(0xfec)
1c000118:	50002000 	b	32(0x20) # 1c000138 <delay_short+0x3c>
1c00011c:	28bfa2cd 	ld.w	$r13,$r22,-24(0xfe8)
1c000120:	28bfb2cc 	ld.w	$r12,$r22,-20(0xfec)
1c000124:	001031ac 	add.w	$r12,$r13,$r12
1c000128:	29bfa2cc 	st.w	$r12,$r22,-24(0xfe8)
1c00012c:	28bfb2cc 	ld.w	$r12,$r22,-20(0xfec)
1c000130:	0280058c 	addi.w	$r12,$r12,1(0x1)
1c000134:	29bfb2cc 	st.w	$r12,$r22,-20(0xfec)
1c000138:	28bfb2cd 	ld.w	$r13,$r22,-20(0xfec)
1c00013c:	14000f4c 	lu12i.w	$r12,122(0x7a)
1c000140:	03847d8c 	ori	$r12,$r12,0x11f
1c000144:	67ffd98d 	bge	$r12,$r13,-40(0x3ffd8) # 1c00011c <delay_short+0x20>
1c000148:	03400000 	andi	$r0,$r0,0x0
1c00014c:	28807076 	ld.w	$r22,$r3,28(0x1c)
1c000150:	02808063 	addi.w	$r3,$r3,32(0x20)
1c000154:	4c000020 	jirl	$r0,$r1,0

1c000158 <display>:
1c000158:	02bfc063 	addi.w	$r3,$r3,-16(0xff0)
1c00015c:	29803061 	st.w	$r1,$r3,12(0xc)
1c000160:	29802076 	st.w	$r22,$r3,8(0x8)
1c000164:	02804076 	addi.w	$r22,$r3,16(0x10)
1c000168:	57ff1bff 	bl	-232(0xfffff18) # 1c000080 <delay>
1c00016c:	1400020c 	lu12i.w	$r12,16(0x10)
1c000170:	0380418c 	ori	$r12,$r12,0x10
1c000174:	1482828d 	lu12i.w	$r13,267284(0x41414)
1c000178:	038505ad 	ori	$r13,$r13,0x141
1c00017c:	2980018d 	st.w	$r13,$r12,0
1c000180:	57ff03ff 	bl	-256(0xfffff00) # 1c000080 <delay>
1c000184:	1400020c 	lu12i.w	$r12,16(0x10)
1c000188:	0380518c 	ori	$r12,$r12,0x14
1c00018c:	1484848d 	lu12i.w	$r13,271396(0x42424)
1c000190:	038909ad 	ori	$r13,$r13,0x242
1c000194:	2980018d 	st.w	$r13,$r12,0
1c000198:	57feebff 	bl	-280(0xffffee8) # 1c000080 <delay>
1c00019c:	1400020c 	lu12i.w	$r12,16(0x10)
1c0001a0:	0380618c 	ori	$r12,$r12,0x18
1c0001a4:	1486868d 	lu12i.w	$r13,275508(0x43434)
1c0001a8:	038d0dad 	ori	$r13,$r13,0x343
1c0001ac:	2980018d 	st.w	$r13,$r12,0
1c0001b0:	57fed3ff 	bl	-304(0xffffed0) # 1c000080 <delay>
1c0001b4:	1400020c 	lu12i.w	$r12,16(0x10)
1c0001b8:	0380718c 	ori	$r12,$r12,0x1c
1c0001bc:	1488888d 	lu12i.w	$r13,279620(0x44444)
1c0001c0:	039111ad 	ori	$r13,$r13,0x444
1c0001c4:	2980018d 	st.w	$r13,$r12,0
1c0001c8:	57febbff 	bl	-328(0xffffeb8) # 1c000080 <delay>
1c0001cc:	1400020c 	lu12i.w	$r12,16(0x10)
1c0001d0:	0380818c 	ori	$r12,$r12,0x20
1c0001d4:	148a8a8d 	lu12i.w	$r13,283732(0x45454)
1c0001d8:	039515ad 	ori	$r13,$r13,0x545
1c0001dc:	2980018d 	st.w	$r13,$r12,0
1c0001e0:	57fea3ff 	bl	-352(0xffffea0) # 1c000080 <delay>
1c0001e4:	1400020c 	lu12i.w	$r12,16(0x10)
1c0001e8:	0380918c 	ori	$r12,$r12,0x24
1c0001ec:	148c8c8d 	lu12i.w	$r13,287844(0x46464)
1c0001f0:	039919ad 	ori	$r13,$r13,0x646
1c0001f4:	2980018d 	st.w	$r13,$r12,0
1c0001f8:	57fe8bff 	bl	-376(0xffffe88) # 1c000080 <delay>
1c0001fc:	1400020c 	lu12i.w	$r12,16(0x10)
1c000200:	0380a18c 	ori	$r12,$r12,0x28
1c000204:	148e8e8d 	lu12i.w	$r13,291956(0x47474)
1c000208:	039d1dad 	ori	$r13,$r13,0x747
1c00020c:	2980018d 	st.w	$r13,$r12,0
1c000210:	57fe73ff 	bl	-400(0xffffe70) # 1c000080 <delay>
1c000214:	1400020c 	lu12i.w	$r12,16(0x10)
1c000218:	0380a18c 	ori	$r12,$r12,0x28
1c00021c:	1440404d 	lu12i.w	$r13,131586(0x20202)
1c000220:	038081ad 	ori	$r13,$r13,0x20
1c000224:	2980018d 	st.w	$r13,$r12,0
1c000228:	57fe5bff 	bl	-424(0xffffe58) # 1c000080 <delay>
1c00022c:	1400020c 	lu12i.w	$r12,16(0x10)
1c000230:	0380918c 	ori	$r12,$r12,0x24
1c000234:	1440404d 	lu12i.w	$r13,131586(0x20202)
1c000238:	038081ad 	ori	$r13,$r13,0x20
1c00023c:	2980018d 	st.w	$r13,$r12,0
1c000240:	57fe43ff 	bl	-448(0xffffe40) # 1c000080 <delay>
1c000244:	1400020c 	lu12i.w	$r12,16(0x10)
1c000248:	0380818c 	ori	$r12,$r12,0x20
1c00024c:	1440404d 	lu12i.w	$r13,131586(0x20202)
1c000250:	038081ad 	ori	$r13,$r13,0x20
1c000254:	2980018d 	st.w	$r13,$r12,0
1c000258:	57fe2bff 	bl	-472(0xffffe28) # 1c000080 <delay>
1c00025c:	1400020c 	lu12i.w	$r12,16(0x10)
1c000260:	0380718c 	ori	$r12,$r12,0x1c
1c000264:	1440404d 	lu12i.w	$r13,131586(0x20202)
1c000268:	038081ad 	ori	$r13,$r13,0x20
1c00026c:	2980018d 	st.w	$r13,$r12,0
1c000270:	57fe13ff 	bl	-496(0xffffe10) # 1c000080 <delay>
1c000274:	1400020c 	lu12i.w	$r12,16(0x10)
1c000278:	0380618c 	ori	$r12,$r12,0x18
1c00027c:	1440404d 	lu12i.w	$r13,131586(0x20202)
1c000280:	038081ad 	ori	$r13,$r13,0x20
1c000284:	2980018d 	st.w	$r13,$r12,0
1c000288:	57fdfbff 	bl	-520(0xffffdf8) # 1c000080 <delay>
1c00028c:	1400020c 	lu12i.w	$r12,16(0x10)
1c000290:	0380518c 	ori	$r12,$r12,0x14
1c000294:	1440404d 	lu12i.w	$r13,131586(0x20202)
1c000298:	038081ad 	ori	$r13,$r13,0x20
1c00029c:	2980018d 	st.w	$r13,$r12,0
1c0002a0:	57fde3ff 	bl	-544(0xffffde0) # 1c000080 <delay>
1c0002a4:	1400020c 	lu12i.w	$r12,16(0x10)
1c0002a8:	0380418c 	ori	$r12,$r12,0x10
1c0002ac:	1440404d 	lu12i.w	$r13,131586(0x20202)
1c0002b0:	038081ad 	ori	$r13,$r13,0x20
1c0002b4:	2980018d 	st.w	$r13,$r12,0
1c0002b8:	03400000 	andi	$r0,$r0,0x0
1c0002bc:	28803061 	ld.w	$r1,$r3,12(0xc)
1c0002c0:	28802076 	ld.w	$r22,$r3,8(0x8)
1c0002c4:	02804063 	addi.w	$r3,$r3,16(0x10)
1c0002c8:	4c000020 	jirl	$r0,$r1,0

1c0002cc <display_dinosaur>:
1c0002cc:	02bf8063 	addi.w	$r3,$r3,-32(0xfe0)
1c0002d0:	29807076 	st.w	$r22,$r3,28(0x1c)
1c0002d4:	02808076 	addi.w	$r22,$r3,32(0x20)
1c0002d8:	29bfb2c4 	st.w	$r4,$r22,-20(0xfec)
1c0002dc:	29bfa2c5 	st.w	$r5,$r22,-24(0xfe8)
1c0002e0:	29bf92c6 	st.w	$r6,$r22,-28(0xfe4)
1c0002e4:	28bfb2cc 	ld.w	$r12,$r22,-20(0xfec)
1c0002e8:	1440404d 	lu12i.w	$r13,131586(0x20202)
1c0002ec:	038081ad 	ori	$r13,$r13,0x20
1c0002f0:	2980018d 	st.w	$r13,$r12,0
1c0002f4:	28bfb2cc 	ld.w	$r12,$r22,-20(0xfec)
1c0002f8:	0280118c 	addi.w	$r12,$r12,4(0x4)
1c0002fc:	1440404d 	lu12i.w	$r13,131586(0x20202)
1c000300:	038081ad 	ori	$r13,$r13,0x20
1c000304:	2980018d 	st.w	$r13,$r12,0
1c000308:	28bfb2cc 	ld.w	$r12,$r22,-20(0xfec)
1c00030c:	0280218c 	addi.w	$r12,$r12,8(0x8)
1c000310:	14b0404d 	lu12i.w	$r13,360962(0x58202)
1c000314:	038081ad 	ori	$r13,$r13,0x20
1c000318:	2980018d 	st.w	$r13,$r12,0
1c00031c:	28bfb2cc 	ld.w	$r12,$r22,-20(0xfec)
1c000320:	0280318c 	addi.w	$r12,$r12,12(0xc)
1c000324:	14b0b0ad 	lu12i.w	$r13,361861(0x58585)
1c000328:	03a161ad 	ori	$r13,$r13,0x858
1c00032c:	2980018d 	st.w	$r13,$r12,0
1c000330:	28bfb2cc 	ld.w	$r12,$r22,-20(0xfec)
1c000334:	0280418c 	addi.w	$r12,$r12,16(0x10)
1c000338:	14b0b0ad 	lu12i.w	$r13,361861(0x58585)
1c00033c:	03a161ad 	ori	$r13,$r13,0x858
1c000340:	2980018d 	st.w	$r13,$r12,0
1c000344:	28bfb2cc 	ld.w	$r12,$r22,-20(0xfec)
1c000348:	0280518c 	addi.w	$r12,$r12,20(0x14)
1c00034c:	1440404d 	lu12i.w	$r13,131586(0x20202)
1c000350:	038161ad 	ori	$r13,$r13,0x58
1c000354:	2980018d 	st.w	$r13,$r12,0
1c000358:	28bfb2cc 	ld.w	$r12,$r22,-20(0xfec)
1c00035c:	0281418c 	addi.w	$r12,$r12,80(0x50)
1c000360:	1440404d 	lu12i.w	$r13,131586(0x20202)
1c000364:	038081ad 	ori	$r13,$r13,0x20
1c000368:	2980018d 	st.w	$r13,$r12,0
1c00036c:	28bfb2cc 	ld.w	$r12,$r22,-20(0xfec)
1c000370:	0281518c 	addi.w	$r12,$r12,84(0x54)
1c000374:	1440404d 	lu12i.w	$r13,131586(0x20202)
1c000378:	038081ad 	ori	$r13,$r13,0x20
1c00037c:	2980018d 	st.w	$r13,$r12,0
1c000380:	28bfb2cc 	ld.w	$r12,$r22,-20(0xfec)
1c000384:	0281618c 	addi.w	$r12,$r12,88(0x58)
1c000388:	14b0b04d 	lu12i.w	$r13,361858(0x58582)
1c00038c:	038081ad 	ori	$r13,$r13,0x20
1c000390:	2980018d 	st.w	$r13,$r12,0
1c000394:	28bfb2cc 	ld.w	$r12,$r22,-20(0xfec)
1c000398:	0281718c 	addi.w	$r12,$r12,92(0x5c)
1c00039c:	14b0b0ad 	lu12i.w	$r13,361861(0x58585)
1c0003a0:	03a081ad 	ori	$r13,$r13,0x820
1c0003a4:	2980018d 	st.w	$r13,$r12,0
1c0003a8:	28bfb2cc 	ld.w	$r12,$r22,-20(0xfec)
1c0003ac:	0281818c 	addi.w	$r12,$r12,96(0x60)
1c0003b0:	14b0b0ad 	lu12i.w	$r13,361861(0x58585)
1c0003b4:	03a161ad 	ori	$r13,$r13,0x858
1c0003b8:	2980018d 	st.w	$r13,$r12,0
1c0003bc:	28bfb2cc 	ld.w	$r12,$r22,-20(0xfec)
1c0003c0:	0281918c 	addi.w	$r12,$r12,100(0x64)
1c0003c4:	144040ad 	lu12i.w	$r13,131589(0x20205)
1c0003c8:	03a161ad 	ori	$r13,$r13,0x858
1c0003cc:	2980018d 	st.w	$r13,$r12,0
1c0003d0:	28bfb2cc 	ld.w	$r12,$r22,-20(0xfec)
1c0003d4:	0282818c 	addi.w	$r12,$r12,160(0xa0)
1c0003d8:	1440404d 	lu12i.w	$r13,131586(0x20202)
1c0003dc:	038081ad 	ori	$r13,$r13,0x20
1c0003e0:	2980018d 	st.w	$r13,$r12,0
1c0003e4:	28bfb2cc 	ld.w	$r12,$r22,-20(0xfec)
1c0003e8:	0282918c 	addi.w	$r12,$r12,164(0xa4)
1c0003ec:	1440404d 	lu12i.w	$r13,131586(0x20202)
1c0003f0:	038081ad 	ori	$r13,$r13,0x20
1c0003f4:	2980018d 	st.w	$r13,$r12,0
1c0003f8:	28bfb2cc 	ld.w	$r12,$r22,-20(0xfec)
1c0003fc:	0282a18c 	addi.w	$r12,$r12,168(0xa8)
1c000400:	14b0b04d 	lu12i.w	$r13,361858(0x58582)
1c000404:	038081ad 	ori	$r13,$r13,0x20
1c000408:	2980018d 	st.w	$r13,$r12,0
1c00040c:	28bfb2cc 	ld.w	$r12,$r22,-20(0xfec)
1c000410:	0282b18c 	addi.w	$r12,$r12,172(0xac)
1c000414:	14b0b0ad 	lu12i.w	$r13,361861(0x58585)
1c000418:	03a161ad 	ori	$r13,$r13,0x858
1c00041c:	2980018d 	st.w	$r13,$r12,0
1c000420:	28bfb2cc 	ld.w	$r12,$r22,-20(0xfec)
1c000424:	0282c18c 	addi.w	$r12,$r12,176(0xb0)
1c000428:	14b0b0ad 	lu12i.w	$r13,361861(0x58585)
1c00042c:	03a161ad 	ori	$r13,$r13,0x858
1c000430:	2980018d 	st.w	$r13,$r12,0
1c000434:	28bfb2cc 	ld.w	$r12,$r22,-20(0xfec)
1c000438:	0282d18c 	addi.w	$r12,$r12,180(0xb4)
1c00043c:	1440b0ad 	lu12i.w	$r13,132485(0x20585)
1c000440:	03a161ad 	ori	$r13,$r13,0x858
1c000444:	2980018d 	st.w	$r13,$r12,0
1c000448:	28bfb2cc 	ld.w	$r12,$r22,-20(0xfec)
1c00044c:	0283c18c 	addi.w	$r12,$r12,240(0xf0)
1c000450:	1440404d 	lu12i.w	$r13,131586(0x20202)
1c000454:	038081ad 	ori	$r13,$r13,0x20
1c000458:	2980018d 	st.w	$r13,$r12,0
1c00045c:	28bfb2cc 	ld.w	$r12,$r22,-20(0xfec)
1c000460:	0283d18c 	addi.w	$r12,$r12,244(0xf4)
1c000464:	1440404d 	lu12i.w	$r13,131586(0x20202)
1c000468:	038081ad 	ori	$r13,$r13,0x20
1c00046c:	2980018d 	st.w	$r13,$r12,0
1c000470:	28bfb2cc 	ld.w	$r12,$r22,-20(0xfec)
1c000474:	0283e18c 	addi.w	$r12,$r12,248(0xf8)
1c000478:	14b0b04d 	lu12i.w	$r13,361858(0x58582)
1c00047c:	038081ad 	ori	$r13,$r13,0x20
1c000480:	2980018d 	st.w	$r13,$r12,0
1c000484:	28bfb2cc 	ld.w	$r12,$r22,-20(0xfec)
1c000488:	0283f18c 	addi.w	$r12,$r12,252(0xfc)
1c00048c:	14b0b0ad 	lu12i.w	$r13,361861(0x58585)
1c000490:	03a161ad 	ori	$r13,$r13,0x858
1c000494:	2980018d 	st.w	$r13,$r12,0
1c000498:	28bfb2cc 	ld.w	$r12,$r22,-20(0xfec)
1c00049c:	0284018c 	addi.w	$r12,$r12,256(0x100)
1c0004a0:	14b0b0ad 	lu12i.w	$r13,361861(0x58585)
1c0004a4:	03a161ad 	ori	$r13,$r13,0x858
1c0004a8:	2980018d 	st.w	$r13,$r12,0
1c0004ac:	28bfb2cc 	ld.w	$r12,$r22,-20(0xfec)
1c0004b0:	0284118c 	addi.w	$r12,$r12,260(0x104)
1c0004b4:	1440b0ad 	lu12i.w	$r13,132485(0x20585)
1c0004b8:	03a161ad 	ori	$r13,$r13,0x858
1c0004bc:	2980018d 	st.w	$r13,$r12,0
1c0004c0:	28bfb2cc 	ld.w	$r12,$r22,-20(0xfec)
1c0004c4:	0285018c 	addi.w	$r12,$r12,320(0x140)
1c0004c8:	1440404d 	lu12i.w	$r13,131586(0x20202)
1c0004cc:	038081ad 	ori	$r13,$r13,0x20
1c0004d0:	2980018d 	st.w	$r13,$r12,0
1c0004d4:	28bfb2cc 	ld.w	$r12,$r22,-20(0xfec)
1c0004d8:	0285118c 	addi.w	$r12,$r12,324(0x144)
1c0004dc:	1440404d 	lu12i.w	$r13,131586(0x20202)
1c0004e0:	038081ad 	ori	$r13,$r13,0x20
1c0004e4:	2980018d 	st.w	$r13,$r12,0
1c0004e8:	28bfb2cc 	ld.w	$r12,$r22,-20(0xfec)
1c0004ec:	0285218c 	addi.w	$r12,$r12,328(0x148)
1c0004f0:	14b0b04d 	lu12i.w	$r13,361858(0x58582)
1c0004f4:	038081ad 	ori	$r13,$r13,0x20
1c0004f8:	2980018d 	st.w	$r13,$r12,0
1c0004fc:	28bfb2cc 	ld.w	$r12,$r22,-20(0xfec)
1c000500:	0285318c 	addi.w	$r12,$r12,332(0x14c)
1c000504:	14b0b0ad 	lu12i.w	$r13,361861(0x58585)
1c000508:	03a161ad 	ori	$r13,$r13,0x858
1c00050c:	2980018d 	st.w	$r13,$r12,0
1c000510:	28bfb2cc 	ld.w	$r12,$r22,-20(0xfec)
1c000514:	0285418c 	addi.w	$r12,$r12,336(0x150)
1c000518:	14b0b0ad 	lu12i.w	$r13,361861(0x58585)
1c00051c:	03a161ad 	ori	$r13,$r13,0x858
1c000520:	2980018d 	st.w	$r13,$r12,0
1c000524:	28bfb2cc 	ld.w	$r12,$r22,-20(0xfec)
1c000528:	0285518c 	addi.w	$r12,$r12,340(0x154)
1c00052c:	1440b0ad 	lu12i.w	$r13,132485(0x20585)
1c000530:	03a161ad 	ori	$r13,$r13,0x858
1c000534:	2980018d 	st.w	$r13,$r12,0
1c000538:	28bfb2cc 	ld.w	$r12,$r22,-20(0xfec)
1c00053c:	0286418c 	addi.w	$r12,$r12,400(0x190)
1c000540:	1440404d 	lu12i.w	$r13,131586(0x20202)
1c000544:	038081ad 	ori	$r13,$r13,0x20
1c000548:	2980018d 	st.w	$r13,$r12,0
1c00054c:	28bfb2cc 	ld.w	$r12,$r22,-20(0xfec)
1c000550:	0286518c 	addi.w	$r12,$r12,404(0x194)
1c000554:	1440404d 	lu12i.w	$r13,131586(0x20202)
1c000558:	038081ad 	ori	$r13,$r13,0x20
1c00055c:	2980018d 	st.w	$r13,$r12,0
1c000560:	28bfb2cc 	ld.w	$r12,$r22,-20(0xfec)
1c000564:	0286618c 	addi.w	$r12,$r12,408(0x198)
1c000568:	14b0b04d 	lu12i.w	$r13,361858(0x58582)
1c00056c:	038081ad 	ori	$r13,$r13,0x20
1c000570:	2980018d 	st.w	$r13,$r12,0
1c000574:	28bfb2cc 	ld.w	$r12,$r22,-20(0xfec)
1c000578:	0286718c 	addi.w	$r12,$r12,412(0x19c)
1c00057c:	14b0b0ad 	lu12i.w	$r13,361861(0x58585)
1c000580:	03a161ad 	ori	$r13,$r13,0x858
1c000584:	2980018d 	st.w	$r13,$r12,0
1c000588:	28bfb2cc 	ld.w	$r12,$r22,-20(0xfec)
1c00058c:	0286818c 	addi.w	$r12,$r12,416(0x1a0)
1c000590:	1440404d 	lu12i.w	$r13,131586(0x20202)
1c000594:	038161ad 	ori	$r13,$r13,0x58
1c000598:	2980018d 	st.w	$r13,$r12,0
1c00059c:	28bfb2cc 	ld.w	$r12,$r22,-20(0xfec)
1c0005a0:	0286918c 	addi.w	$r12,$r12,420(0x1a4)
1c0005a4:	1440404d 	lu12i.w	$r13,131586(0x20202)
1c0005a8:	038081ad 	ori	$r13,$r13,0x20
1c0005ac:	2980018d 	st.w	$r13,$r12,0
1c0005b0:	28bfb2cc 	ld.w	$r12,$r22,-20(0xfec)
1c0005b4:	0287818c 	addi.w	$r12,$r12,480(0x1e0)
1c0005b8:	1440404d 	lu12i.w	$r13,131586(0x20202)
1c0005bc:	038161ad 	ori	$r13,$r13,0x58
1c0005c0:	2980018d 	st.w	$r13,$r12,0
1c0005c4:	28bfb2cc 	ld.w	$r12,$r22,-20(0xfec)
1c0005c8:	0287918c 	addi.w	$r12,$r12,484(0x1e4)
1c0005cc:	1440404d 	lu12i.w	$r13,131586(0x20202)
1c0005d0:	038081ad 	ori	$r13,$r13,0x20
1c0005d4:	2980018d 	st.w	$r13,$r12,0
1c0005d8:	28bfb2cc 	ld.w	$r12,$r22,-20(0xfec)
1c0005dc:	0287a18c 	addi.w	$r12,$r12,488(0x1e8)
1c0005e0:	14b0b0ad 	lu12i.w	$r13,361861(0x58585)
1c0005e4:	03a081ad 	ori	$r13,$r13,0x820
1c0005e8:	2980018d 	st.w	$r13,$r12,0
1c0005ec:	28bfb2cc 	ld.w	$r12,$r22,-20(0xfec)
1c0005f0:	0287b18c 	addi.w	$r12,$r12,492(0x1ec)
1c0005f4:	14b0b0ad 	lu12i.w	$r13,361861(0x58585)
1c0005f8:	03a161ad 	ori	$r13,$r13,0x858
1c0005fc:	2980018d 	st.w	$r13,$r12,0
1c000600:	28bfb2cc 	ld.w	$r12,$r22,-20(0xfec)
1c000604:	0287c18c 	addi.w	$r12,$r12,496(0x1f0)
1c000608:	14b0b0ad 	lu12i.w	$r13,361861(0x58585)
1c00060c:	03a161ad 	ori	$r13,$r13,0x858
1c000610:	2980018d 	st.w	$r13,$r12,0
1c000614:	28bfb2cc 	ld.w	$r12,$r22,-20(0xfec)
1c000618:	0287d18c 	addi.w	$r12,$r12,500(0x1f4)
1c00061c:	1440404d 	lu12i.w	$r13,131586(0x20202)
1c000620:	038081ad 	ori	$r13,$r13,0x20
1c000624:	2980018d 	st.w	$r13,$r12,0
1c000628:	28bfb2cc 	ld.w	$r12,$r22,-20(0xfec)
1c00062c:	0288c18c 	addi.w	$r12,$r12,560(0x230)
1c000630:	1440404d 	lu12i.w	$r13,131586(0x20202)
1c000634:	038161ad 	ori	$r13,$r13,0x58
1c000638:	2980018d 	st.w	$r13,$r12,0
1c00063c:	28bfb2cc 	ld.w	$r12,$r22,-20(0xfec)
1c000640:	0288d18c 	addi.w	$r12,$r12,564(0x234)
1c000644:	1440404d 	lu12i.w	$r13,131586(0x20202)
1c000648:	038081ad 	ori	$r13,$r13,0x20
1c00064c:	2980018d 	st.w	$r13,$r12,0
1c000650:	28bfb2cc 	ld.w	$r12,$r22,-20(0xfec)
1c000654:	0288e18c 	addi.w	$r12,$r12,568(0x238)
1c000658:	14b0b0ad 	lu12i.w	$r13,361861(0x58585)
1c00065c:	03a161ad 	ori	$r13,$r13,0x858
1c000660:	2980018d 	st.w	$r13,$r12,0
1c000664:	28bfb2cc 	ld.w	$r12,$r22,-20(0xfec)
1c000668:	0288f18c 	addi.w	$r12,$r12,572(0x23c)
1c00066c:	1440b0ad 	lu12i.w	$r13,132485(0x20585)
1c000670:	03a161ad 	ori	$r13,$r13,0x858
1c000674:	2980018d 	st.w	$r13,$r12,0
1c000678:	28bfb2cc 	ld.w	$r12,$r22,-20(0xfec)
1c00067c:	0289018c 	addi.w	$r12,$r12,576(0x240)
1c000680:	1440404d 	lu12i.w	$r13,131586(0x20202)
1c000684:	038081ad 	ori	$r13,$r13,0x20
1c000688:	2980018d 	st.w	$r13,$r12,0
1c00068c:	28bfb2cc 	ld.w	$r12,$r22,-20(0xfec)
1c000690:	0289118c 	addi.w	$r12,$r12,580(0x244)
1c000694:	1440404d 	lu12i.w	$r13,131586(0x20202)
1c000698:	038081ad 	ori	$r13,$r13,0x20
1c00069c:	2980018d 	st.w	$r13,$r12,0
1c0006a0:	28bfb2cc 	ld.w	$r12,$r22,-20(0xfec)
1c0006a4:	028a018c 	addi.w	$r12,$r12,640(0x280)
1c0006a8:	144040ad 	lu12i.w	$r13,131589(0x20205)
1c0006ac:	03a161ad 	ori	$r13,$r13,0x858
1c0006b0:	2980018d 	st.w	$r13,$r12,0
1c0006b4:	28bfb2cc 	ld.w	$r12,$r22,-20(0xfec)
1c0006b8:	028a118c 	addi.w	$r12,$r12,644(0x284)
1c0006bc:	14b0404d 	lu12i.w	$r13,360962(0x58202)
1c0006c0:	038081ad 	ori	$r13,$r13,0x20
1c0006c4:	2980018d 	st.w	$r13,$r12,0
1c0006c8:	28bfb2cc 	ld.w	$r12,$r22,-20(0xfec)
1c0006cc:	028a218c 	addi.w	$r12,$r12,648(0x288)
1c0006d0:	14b0b0ad 	lu12i.w	$r13,361861(0x58585)
1c0006d4:	03a161ad 	ori	$r13,$r13,0x858
1c0006d8:	2980018d 	st.w	$r13,$r12,0
1c0006dc:	28bfb2cc 	ld.w	$r12,$r22,-20(0xfec)
1c0006e0:	028a318c 	addi.w	$r12,$r12,652(0x28c)
1c0006e4:	1440b0ad 	lu12i.w	$r13,132485(0x20585)
1c0006e8:	03a161ad 	ori	$r13,$r13,0x858
1c0006ec:	2980018d 	st.w	$r13,$r12,0
1c0006f0:	28bfb2cc 	ld.w	$r12,$r22,-20(0xfec)
1c0006f4:	028a418c 	addi.w	$r12,$r12,656(0x290)
1c0006f8:	1440404d 	lu12i.w	$r13,131586(0x20202)
1c0006fc:	038081ad 	ori	$r13,$r13,0x20
1c000700:	2980018d 	st.w	$r13,$r12,0
1c000704:	28bfb2cc 	ld.w	$r12,$r22,-20(0xfec)
1c000708:	028a518c 	addi.w	$r12,$r12,660(0x294)
1c00070c:	1440404d 	lu12i.w	$r13,131586(0x20202)
1c000710:	038081ad 	ori	$r13,$r13,0x20
1c000714:	2980018d 	st.w	$r13,$r12,0
1c000718:	28bfb2cc 	ld.w	$r12,$r22,-20(0xfec)
1c00071c:	028b418c 	addi.w	$r12,$r12,720(0x2d0)
1c000720:	14b0b0ad 	lu12i.w	$r13,361861(0x58585)
1c000724:	03a161ad 	ori	$r13,$r13,0x858
1c000728:	2980018d 	st.w	$r13,$r12,0
1c00072c:	28bfb2cc 	ld.w	$r12,$r22,-20(0xfec)
1c000730:	028b518c 	addi.w	$r12,$r12,724(0x2d4)
1c000734:	14b0b04d 	lu12i.w	$r13,361858(0x58582)
1c000738:	038081ad 	ori	$r13,$r13,0x20
1c00073c:	2980018d 	st.w	$r13,$r12,0
1c000740:	28bfb2cc 	ld.w	$r12,$r22,-20(0xfec)
1c000744:	028b618c 	addi.w	$r12,$r12,728(0x2d8)
1c000748:	14b0b0ad 	lu12i.w	$r13,361861(0x58585)
1c00074c:	03a161ad 	ori	$r13,$r13,0x858
1c000750:	2980018d 	st.w	$r13,$r12,0
1c000754:	28bfb2cc 	ld.w	$r12,$r22,-20(0xfec)
1c000758:	028b718c 	addi.w	$r12,$r12,732(0x2dc)
1c00075c:	14b0b0ad 	lu12i.w	$r13,361861(0x58585)
1c000760:	03a161ad 	ori	$r13,$r13,0x858
1c000764:	2980018d 	st.w	$r13,$r12,0
1c000768:	28bfb2cc 	ld.w	$r12,$r22,-20(0xfec)
1c00076c:	028b818c 	addi.w	$r12,$r12,736(0x2e0)
1c000770:	144040ad 	lu12i.w	$r13,131589(0x20205)
1c000774:	03a161ad 	ori	$r13,$r13,0x858
1c000778:	2980018d 	st.w	$r13,$r12,0
1c00077c:	28bfb2cc 	ld.w	$r12,$r22,-20(0xfec)
1c000780:	028b918c 	addi.w	$r12,$r12,740(0x2e4)
1c000784:	1440404d 	lu12i.w	$r13,131586(0x20202)
1c000788:	038081ad 	ori	$r13,$r13,0x20
1c00078c:	2980018d 	st.w	$r13,$r12,0
1c000790:	28bfb2cc 	ld.w	$r12,$r22,-20(0xfec)
1c000794:	028c818c 	addi.w	$r12,$r12,800(0x320)
1c000798:	14b0b0ad 	lu12i.w	$r13,361861(0x58585)
1c00079c:	03a161ad 	ori	$r13,$r13,0x858
1c0007a0:	2980018d 	st.w	$r13,$r12,0
1c0007a4:	28bfb2cc 	ld.w	$r12,$r22,-20(0xfec)
1c0007a8:	028c918c 	addi.w	$r12,$r12,804(0x324)
1c0007ac:	14b0b0ad 	lu12i.w	$r13,361861(0x58585)
1c0007b0:	03a161ad 	ori	$r13,$r13,0x858
1c0007b4:	2980018d 	st.w	$r13,$r12,0
1c0007b8:	28bfb2cc 	ld.w	$r12,$r22,-20(0xfec)
1c0007bc:	028ca18c 	addi.w	$r12,$r12,808(0x328)
1c0007c0:	14b0b0ad 	lu12i.w	$r13,361861(0x58585)
1c0007c4:	03a161ad 	ori	$r13,$r13,0x858
1c0007c8:	2980018d 	st.w	$r13,$r12,0
1c0007cc:	28bfb2cc 	ld.w	$r12,$r22,-20(0xfec)
1c0007d0:	028cb18c 	addi.w	$r12,$r12,812(0x32c)
1c0007d4:	14b0b0ad 	lu12i.w	$r13,361861(0x58585)
1c0007d8:	03a161ad 	ori	$r13,$r13,0x858
1c0007dc:	2980018d 	st.w	$r13,$r12,0
1c0007e0:	28bfb2cc 	ld.w	$r12,$r22,-20(0xfec)
1c0007e4:	028cc18c 	addi.w	$r12,$r12,816(0x330)
1c0007e8:	144040ad 	lu12i.w	$r13,131589(0x20205)
1c0007ec:	03a081ad 	ori	$r13,$r13,0x820
1c0007f0:	2980018d 	st.w	$r13,$r12,0
1c0007f4:	28bfb2cc 	ld.w	$r12,$r22,-20(0xfec)
1c0007f8:	028cd18c 	addi.w	$r12,$r12,820(0x334)
1c0007fc:	1440404d 	lu12i.w	$r13,131586(0x20202)
1c000800:	038081ad 	ori	$r13,$r13,0x20
1c000804:	2980018d 	st.w	$r13,$r12,0
1c000808:	28bfb2cc 	ld.w	$r12,$r22,-20(0xfec)
1c00080c:	028dc18c 	addi.w	$r12,$r12,880(0x370)
1c000810:	14b0b0ad 	lu12i.w	$r13,361861(0x58585)
1c000814:	03a081ad 	ori	$r13,$r13,0x820
1c000818:	2980018d 	st.w	$r13,$r12,0
1c00081c:	28bfb2cc 	ld.w	$r12,$r22,-20(0xfec)
1c000820:	028dd18c 	addi.w	$r12,$r12,884(0x374)
1c000824:	14b0b0ad 	lu12i.w	$r13,361861(0x58585)
1c000828:	03a161ad 	ori	$r13,$r13,0x858
1c00082c:	2980018d 	st.w	$r13,$r12,0
1c000830:	28bfb2cc 	ld.w	$r12,$r22,-20(0xfec)
1c000834:	028de18c 	addi.w	$r12,$r12,888(0x378)
1c000838:	14b0b0ad 	lu12i.w	$r13,361861(0x58585)
1c00083c:	03a161ad 	ori	$r13,$r13,0x858
1c000840:	2980018d 	st.w	$r13,$r12,0
1c000844:	28bfb2cc 	ld.w	$r12,$r22,-20(0xfec)
1c000848:	028df18c 	addi.w	$r12,$r12,892(0x37c)
1c00084c:	14b0b0ad 	lu12i.w	$r13,361861(0x58585)
1c000850:	03a161ad 	ori	$r13,$r13,0x858
1c000854:	2980018d 	st.w	$r13,$r12,0
1c000858:	28bfb2cc 	ld.w	$r12,$r22,-20(0xfec)
1c00085c:	028e018c 	addi.w	$r12,$r12,896(0x380)
1c000860:	1440404d 	lu12i.w	$r13,131586(0x20202)
1c000864:	038081ad 	ori	$r13,$r13,0x20
1c000868:	2980018d 	st.w	$r13,$r12,0
1c00086c:	28bfb2cc 	ld.w	$r12,$r22,-20(0xfec)
1c000870:	028e118c 	addi.w	$r12,$r12,900(0x384)
1c000874:	1440404d 	lu12i.w	$r13,131586(0x20202)
1c000878:	038081ad 	ori	$r13,$r13,0x20
1c00087c:	2980018d 	st.w	$r13,$r12,0
1c000880:	28bfb2cc 	ld.w	$r12,$r22,-20(0xfec)
1c000884:	028f018c 	addi.w	$r12,$r12,960(0x3c0)
1c000888:	14b0b04d 	lu12i.w	$r13,361858(0x58582)
1c00088c:	038081ad 	ori	$r13,$r13,0x20
1c000890:	2980018d 	st.w	$r13,$r12,0
1c000894:	28bfb2cc 	ld.w	$r12,$r22,-20(0xfec)
1c000898:	028f118c 	addi.w	$r12,$r12,964(0x3c4)
1c00089c:	14b0b0ad 	lu12i.w	$r13,361861(0x58585)
1c0008a0:	03a161ad 	ori	$r13,$r13,0x858
1c0008a4:	2980018d 	st.w	$r13,$r12,0
1c0008a8:	28bfb2cc 	ld.w	$r12,$r22,-20(0xfec)
1c0008ac:	028f218c 	addi.w	$r12,$r12,968(0x3c8)
1c0008b0:	14b0b0ad 	lu12i.w	$r13,361861(0x58585)
1c0008b4:	03a161ad 	ori	$r13,$r13,0x858
1c0008b8:	2980018d 	st.w	$r13,$r12,0
1c0008bc:	28bfb2cc 	ld.w	$r12,$r22,-20(0xfec)
1c0008c0:	028f318c 	addi.w	$r12,$r12,972(0x3cc)
1c0008c4:	14b0b0ad 	lu12i.w	$r13,361861(0x58585)
1c0008c8:	03a161ad 	ori	$r13,$r13,0x858
1c0008cc:	2980018d 	st.w	$r13,$r12,0
1c0008d0:	28bfb2cc 	ld.w	$r12,$r22,-20(0xfec)
1c0008d4:	028f418c 	addi.w	$r12,$r12,976(0x3d0)
1c0008d8:	1440404d 	lu12i.w	$r13,131586(0x20202)
1c0008dc:	038081ad 	ori	$r13,$r13,0x20
1c0008e0:	2980018d 	st.w	$r13,$r12,0
1c0008e4:	28bfb2cc 	ld.w	$r12,$r22,-20(0xfec)
1c0008e8:	028f518c 	addi.w	$r12,$r12,980(0x3d4)
1c0008ec:	1440404d 	lu12i.w	$r13,131586(0x20202)
1c0008f0:	038081ad 	ori	$r13,$r13,0x20
1c0008f4:	2980018d 	st.w	$r13,$r12,0
1c0008f8:	28bfb2cc 	ld.w	$r12,$r22,-20(0xfec)
1c0008fc:	0290418c 	addi.w	$r12,$r12,1040(0x410)
1c000900:	14b0404d 	lu12i.w	$r13,360962(0x58202)
1c000904:	038081ad 	ori	$r13,$r13,0x20
1c000908:	2980018d 	st.w	$r13,$r12,0
1c00090c:	28bfb2cc 	ld.w	$r12,$r22,-20(0xfec)
1c000910:	0290518c 	addi.w	$r12,$r12,1044(0x414)
1c000914:	14b0b0ad 	lu12i.w	$r13,361861(0x58585)
1c000918:	03a161ad 	ori	$r13,$r13,0x858
1c00091c:	2980018d 	st.w	$r13,$r12,0
1c000920:	28bfb2cc 	ld.w	$r12,$r22,-20(0xfec)
1c000924:	0290618c 	addi.w	$r12,$r12,1048(0x418)
1c000928:	14b0b0ad 	lu12i.w	$r13,361861(0x58585)
1c00092c:	03a161ad 	ori	$r13,$r13,0x858
1c000930:	2980018d 	st.w	$r13,$r12,0
1c000934:	28bfb2cc 	ld.w	$r12,$r22,-20(0xfec)
1c000938:	0290718c 	addi.w	$r12,$r12,1052(0x41c)
1c00093c:	1440b0ad 	lu12i.w	$r13,132485(0x20585)
1c000940:	03a161ad 	ori	$r13,$r13,0x858
1c000944:	2980018d 	st.w	$r13,$r12,0
1c000948:	28bfb2cc 	ld.w	$r12,$r22,-20(0xfec)
1c00094c:	0290818c 	addi.w	$r12,$r12,1056(0x420)
1c000950:	1440404d 	lu12i.w	$r13,131586(0x20202)
1c000954:	038081ad 	ori	$r13,$r13,0x20
1c000958:	2980018d 	st.w	$r13,$r12,0
1c00095c:	28bfb2cc 	ld.w	$r12,$r22,-20(0xfec)
1c000960:	0290918c 	addi.w	$r12,$r12,1060(0x424)
1c000964:	1440404d 	lu12i.w	$r13,131586(0x20202)
1c000968:	038081ad 	ori	$r13,$r13,0x20
1c00096c:	2980018d 	st.w	$r13,$r12,0
1c000970:	28bfb2cc 	ld.w	$r12,$r22,-20(0xfec)
1c000974:	0291818c 	addi.w	$r12,$r12,1120(0x460)
1c000978:	1440404d 	lu12i.w	$r13,131586(0x20202)
1c00097c:	038081ad 	ori	$r13,$r13,0x20
1c000980:	2980018d 	st.w	$r13,$r12,0
1c000984:	28bfb2cc 	ld.w	$r12,$r22,-20(0xfec)
1c000988:	0291918c 	addi.w	$r12,$r12,1124(0x464)
1c00098c:	14b0b0ad 	lu12i.w	$r13,361861(0x58585)
1c000990:	03a161ad 	ori	$r13,$r13,0x858
1c000994:	2980018d 	st.w	$r13,$r12,0
1c000998:	28bfb2cc 	ld.w	$r12,$r22,-20(0xfec)
1c00099c:	0291a18c 	addi.w	$r12,$r12,1128(0x468)
1c0009a0:	14b0b0ad 	lu12i.w	$r13,361861(0x58585)
1c0009a4:	03a161ad 	ori	$r13,$r13,0x858
1c0009a8:	2980018d 	st.w	$r13,$r12,0
1c0009ac:	28bfb2cc 	ld.w	$r12,$r22,-20(0xfec)
1c0009b0:	0291b18c 	addi.w	$r12,$r12,1132(0x46c)
1c0009b4:	144040ad 	lu12i.w	$r13,131589(0x20205)
1c0009b8:	03a161ad 	ori	$r13,$r13,0x858
1c0009bc:	2980018d 	st.w	$r13,$r12,0
1c0009c0:	28bfb2cc 	ld.w	$r12,$r22,-20(0xfec)
1c0009c4:	0291c18c 	addi.w	$r12,$r12,1136(0x470)
1c0009c8:	1440404d 	lu12i.w	$r13,131586(0x20202)
1c0009cc:	038081ad 	ori	$r13,$r13,0x20
1c0009d0:	2980018d 	st.w	$r13,$r12,0
1c0009d4:	28bfb2cc 	ld.w	$r12,$r22,-20(0xfec)
1c0009d8:	0291d18c 	addi.w	$r12,$r12,1140(0x474)
1c0009dc:	1440404d 	lu12i.w	$r13,131586(0x20202)
1c0009e0:	038081ad 	ori	$r13,$r13,0x20
1c0009e4:	2980018d 	st.w	$r13,$r12,0
1c0009e8:	28bfb2cc 	ld.w	$r12,$r22,-20(0xfec)
1c0009ec:	0292c18c 	addi.w	$r12,$r12,1200(0x4b0)
1c0009f0:	1440404d 	lu12i.w	$r13,131586(0x20202)
1c0009f4:	038081ad 	ori	$r13,$r13,0x20
1c0009f8:	2980018d 	st.w	$r13,$r12,0
1c0009fc:	28bfb2cc 	ld.w	$r12,$r22,-20(0xfec)
1c000a00:	0292d18c 	addi.w	$r12,$r12,1204(0x4b4)
1c000a04:	14b0b0ad 	lu12i.w	$r13,361861(0x58585)
1c000a08:	03a081ad 	ori	$r13,$r13,0x820
1c000a0c:	2980018d 	st.w	$r13,$r12,0
1c000a10:	28bfb2cc 	ld.w	$r12,$r22,-20(0xfec)
1c000a14:	0292e18c 	addi.w	$r12,$r12,1208(0x4b8)
1c000a18:	1440b0ad 	lu12i.w	$r13,132485(0x20585)
1c000a1c:	03a081ad 	ori	$r13,$r13,0x820
1c000a20:	2980018d 	st.w	$r13,$r12,0
1c000a24:	28bfb2cc 	ld.w	$r12,$r22,-20(0xfec)
1c000a28:	0292f18c 	addi.w	$r12,$r12,1212(0x4bc)
1c000a2c:	1440404d 	lu12i.w	$r13,131586(0x20202)
1c000a30:	038081ad 	ori	$r13,$r13,0x20
1c000a34:	2980018d 	st.w	$r13,$r12,0
1c000a38:	28bfb2cc 	ld.w	$r12,$r22,-20(0xfec)
1c000a3c:	0293018c 	addi.w	$r12,$r12,1216(0x4c0)
1c000a40:	1440404d 	lu12i.w	$r13,131586(0x20202)
1c000a44:	038081ad 	ori	$r13,$r13,0x20
1c000a48:	2980018d 	st.w	$r13,$r12,0
1c000a4c:	28bfb2cc 	ld.w	$r12,$r22,-20(0xfec)
1c000a50:	0293118c 	addi.w	$r12,$r12,1220(0x4c4)
1c000a54:	1440404d 	lu12i.w	$r13,131586(0x20202)
1c000a58:	038081ad 	ori	$r13,$r13,0x20
1c000a5c:	2980018d 	st.w	$r13,$r12,0
1c000a60:	28bfb2cc 	ld.w	$r12,$r22,-20(0xfec)
1c000a64:	0294018c 	addi.w	$r12,$r12,1280(0x500)
1c000a68:	1440404d 	lu12i.w	$r13,131586(0x20202)
1c000a6c:	038081ad 	ori	$r13,$r13,0x20
1c000a70:	2980018d 	st.w	$r13,$r12,0
1c000a74:	28bfb2cc 	ld.w	$r12,$r22,-20(0xfec)
1c000a78:	0294118c 	addi.w	$r12,$r12,1284(0x504)
1c000a7c:	1440b0ad 	lu12i.w	$r13,132485(0x20585)
1c000a80:	03a081ad 	ori	$r13,$r13,0x820
1c000a84:	2980018d 	st.w	$r13,$r12,0
1c000a88:	28bfb2cc 	ld.w	$r12,$r22,-20(0xfec)
1c000a8c:	0294218c 	addi.w	$r12,$r12,1288(0x508)
1c000a90:	1440b04d 	lu12i.w	$r13,132482(0x20582)
1c000a94:	038081ad 	ori	$r13,$r13,0x20
1c000a98:	2980018d 	st.w	$r13,$r12,0
1c000a9c:	28bfb2cc 	ld.w	$r12,$r22,-20(0xfec)
1c000aa0:	0294318c 	addi.w	$r12,$r12,1292(0x50c)
1c000aa4:	1440404d 	lu12i.w	$r13,131586(0x20202)
1c000aa8:	038081ad 	ori	$r13,$r13,0x20
1c000aac:	2980018d 	st.w	$r13,$r12,0
1c000ab0:	28bfb2cc 	ld.w	$r12,$r22,-20(0xfec)
1c000ab4:	0294418c 	addi.w	$r12,$r12,1296(0x510)
1c000ab8:	1440404d 	lu12i.w	$r13,131586(0x20202)
1c000abc:	038081ad 	ori	$r13,$r13,0x20
1c000ac0:	2980018d 	st.w	$r13,$r12,0
1c000ac4:	28bfb2cc 	ld.w	$r12,$r22,-20(0xfec)
1c000ac8:	0294518c 	addi.w	$r12,$r12,1300(0x514)
1c000acc:	1440404d 	lu12i.w	$r13,131586(0x20202)
1c000ad0:	038081ad 	ori	$r13,$r13,0x20
1c000ad4:	2980018d 	st.w	$r13,$r12,0
1c000ad8:	28bfb2cc 	ld.w	$r12,$r22,-20(0xfec)
1c000adc:	0295418c 	addi.w	$r12,$r12,1360(0x550)
1c000ae0:	1440404d 	lu12i.w	$r13,131586(0x20202)
1c000ae4:	038081ad 	ori	$r13,$r13,0x20
1c000ae8:	2980018d 	st.w	$r13,$r12,0
1c000aec:	28bfb2cc 	ld.w	$r12,$r22,-20(0xfec)
1c000af0:	0295518c 	addi.w	$r12,$r12,1364(0x554)
1c000af4:	144040ad 	lu12i.w	$r13,131589(0x20205)
1c000af8:	03a081ad 	ori	$r13,$r13,0x820
1c000afc:	2980018d 	st.w	$r13,$r12,0
1c000b00:	28bfb2cc 	ld.w	$r12,$r22,-20(0xfec)
1c000b04:	0295618c 	addi.w	$r12,$r12,1368(0x558)
1c000b08:	1440b04d 	lu12i.w	$r13,132482(0x20582)
1c000b0c:	038081ad 	ori	$r13,$r13,0x20
1c000b10:	2980018d 	st.w	$r13,$r12,0
1c000b14:	28bfb2cc 	ld.w	$r12,$r22,-20(0xfec)
1c000b18:	0295718c 	addi.w	$r12,$r12,1372(0x55c)
1c000b1c:	1440404d 	lu12i.w	$r13,131586(0x20202)
1c000b20:	038081ad 	ori	$r13,$r13,0x20
1c000b24:	2980018d 	st.w	$r13,$r12,0
1c000b28:	28bfb2cc 	ld.w	$r12,$r22,-20(0xfec)
1c000b2c:	0295818c 	addi.w	$r12,$r12,1376(0x560)
1c000b30:	1440404d 	lu12i.w	$r13,131586(0x20202)
1c000b34:	038081ad 	ori	$r13,$r13,0x20
1c000b38:	2980018d 	st.w	$r13,$r12,0
1c000b3c:	28bfb2cc 	ld.w	$r12,$r22,-20(0xfec)
1c000b40:	0295918c 	addi.w	$r12,$r12,1380(0x564)
1c000b44:	1440404d 	lu12i.w	$r13,131586(0x20202)
1c000b48:	038081ad 	ori	$r13,$r13,0x20
1c000b4c:	2980018d 	st.w	$r13,$r12,0
1c000b50:	28bfb2cc 	ld.w	$r12,$r22,-20(0xfec)
1c000b54:	0296818c 	addi.w	$r12,$r12,1440(0x5a0)
1c000b58:	1440404d 	lu12i.w	$r13,131586(0x20202)
1c000b5c:	038081ad 	ori	$r13,$r13,0x20
1c000b60:	2980018d 	st.w	$r13,$r12,0
1c000b64:	28bfb2cc 	ld.w	$r12,$r22,-20(0xfec)
1c000b68:	0296918c 	addi.w	$r12,$r12,1444(0x5a4)
1c000b6c:	1440b0ad 	lu12i.w	$r13,132485(0x20585)
1c000b70:	03a081ad 	ori	$r13,$r13,0x820
1c000b74:	2980018d 	st.w	$r13,$r12,0
1c000b78:	28bfb2cc 	ld.w	$r12,$r22,-20(0xfec)
1c000b7c:	0296a18c 	addi.w	$r12,$r12,1448(0x5a8)
1c000b80:	14b0b04d 	lu12i.w	$r13,361858(0x58582)
1c000b84:	038081ad 	ori	$r13,$r13,0x20
1c000b88:	2980018d 	st.w	$r13,$r12,0
1c000b8c:	28bfb2cc 	ld.w	$r12,$r22,-20(0xfec)
1c000b90:	0296b18c 	addi.w	$r12,$r12,1452(0x5ac)
1c000b94:	1440404d 	lu12i.w	$r13,131586(0x20202)
1c000b98:	038081ad 	ori	$r13,$r13,0x20
1c000b9c:	2980018d 	st.w	$r13,$r12,0
1c000ba0:	28bfb2cc 	ld.w	$r12,$r22,-20(0xfec)
1c000ba4:	0296c18c 	addi.w	$r12,$r12,1456(0x5b0)
1c000ba8:	1440404d 	lu12i.w	$r13,131586(0x20202)
1c000bac:	038081ad 	ori	$r13,$r13,0x20
1c000bb0:	2980018d 	st.w	$r13,$r12,0
1c000bb4:	28bfb2cc 	ld.w	$r12,$r22,-20(0xfec)
1c000bb8:	0296d18c 	addi.w	$r12,$r12,1460(0x5b4)
1c000bbc:	1440404d 	lu12i.w	$r13,131586(0x20202)
1c000bc0:	038081ad 	ori	$r13,$r13,0x20
1c000bc4:	2980018d 	st.w	$r13,$r12,0
1c000bc8:	03400000 	andi	$r0,$r0,0x0
1c000bcc:	28807076 	ld.w	$r22,$r3,28(0x1c)
1c000bd0:	02808063 	addi.w	$r3,$r3,32(0x20)
1c000bd4:	4c000020 	jirl	$r0,$r1,0

1c000bd8 <memcpy_int>:
1c000bd8:	02bf4063 	addi.w	$r3,$r3,-48(0xfd0)
1c000bdc:	2980b076 	st.w	$r22,$r3,44(0x2c)
1c000be0:	0280c076 	addi.w	$r22,$r3,48(0x30)
1c000be4:	29bf72c4 	st.w	$r4,$r22,-36(0xfdc)
1c000be8:	29bf62c5 	st.w	$r5,$r22,-40(0xfd8)
1c000bec:	29bf52c6 	st.w	$r6,$r22,-44(0xfd4)
1c000bf0:	29bfb2c0 	st.w	$r0,$r22,-20(0xfec)
1c000bf4:	29bfb2c0 	st.w	$r0,$r22,-20(0xfec)
1c000bf8:	50003800 	b	56(0x38) # 1c000c30 <memcpy_int+0x58>
1c000bfc:	28bfb2cc 	ld.w	$r12,$r22,-20(0xfec)
1c000c00:	0040898c 	slli.w	$r12,$r12,0x2
1c000c04:	28bf62cd 	ld.w	$r13,$r22,-40(0xfd8)
1c000c08:	001031ad 	add.w	$r13,$r13,$r12
1c000c0c:	28bfb2cc 	ld.w	$r12,$r22,-20(0xfec)
1c000c10:	0040898c 	slli.w	$r12,$r12,0x2
1c000c14:	28bf72ce 	ld.w	$r14,$r22,-36(0xfdc)
1c000c18:	001031cc 	add.w	$r12,$r14,$r12
1c000c1c:	288001ad 	ld.w	$r13,$r13,0
1c000c20:	2980018d 	st.w	$r13,$r12,0
1c000c24:	28bfb2cc 	ld.w	$r12,$r22,-20(0xfec)
1c000c28:	0280058c 	addi.w	$r12,$r12,1(0x1)
1c000c2c:	29bfb2cc 	st.w	$r12,$r22,-20(0xfec)
1c000c30:	28bfb2cd 	ld.w	$r13,$r22,-20(0xfec)
1c000c34:	28bf52cc 	ld.w	$r12,$r22,-44(0xfd4)
1c000c38:	63ffc5ac 	blt	$r13,$r12,-60(0x3ffc4) # 1c000bfc <memcpy_int+0x24>
1c000c3c:	03400000 	andi	$r0,$r0,0x0
1c000c40:	2880b076 	ld.w	$r22,$r3,44(0x2c)
1c000c44:	0280c063 	addi.w	$r3,$r3,48(0x30)
1c000c48:	4c000020 	jirl	$r0,$r1,0

1c000c4c <show_img>:
1c000c4c:	02bec063 	addi.w	$r3,$r3,-80(0xfb0)
1c000c50:	29813061 	st.w	$r1,$r3,76(0x4c)
1c000c54:	29812076 	st.w	$r22,$r3,72(0x48)
1c000c58:	02814076 	addi.w	$r22,$r3,80(0x50)
1c000c5c:	29bf32c4 	st.w	$r4,$r22,-52(0xfcc)
1c000c60:	29bf22c5 	st.w	$r5,$r22,-56(0xfc8)
1c000c64:	29bf12c6 	st.w	$r6,$r22,-60(0xfc4)
1c000c68:	29bf02c7 	st.w	$r7,$r22,-64(0xfc0)
1c000c6c:	29bef2c8 	st.w	$r8,$r22,-68(0xfbc)
1c000c70:	29bee2c9 	st.w	$r9,$r22,-72(0xfb8)
1c000c74:	28bf02cc 	ld.w	$r12,$r22,-64(0xfc0)
1c000c78:	29bfa2cc 	st.w	$r12,$r22,-24(0xfe8)
1c000c7c:	28bee2cc 	ld.w	$r12,$r22,-72(0xfb8)
1c000c80:	0044898c 	srli.w	$r12,$r12,0x2
1c000c84:	29bf92cc 	st.w	$r12,$r22,-28(0xfe4)
1c000c88:	28bf22cd 	ld.w	$r13,$r22,-56(0xfc8)
1c000c8c:	0281400c 	addi.w	$r12,$r0,80(0x50)
1c000c90:	001c31ad 	mul.w	$r13,$r13,$r12
1c000c94:	28bf12ce 	ld.w	$r14,$r22,-60(0xfc4)
1c000c98:	02bff00c 	addi.w	$r12,$r0,-4(0xffc)
1c000c9c:	0014b1cc 	and	$r12,$r14,$r12
1c000ca0:	001031ac 	add.w	$r12,$r13,$r12
1c000ca4:	28bf32cd 	ld.w	$r13,$r22,-52(0xfcc)
1c000ca8:	001031ac 	add.w	$r12,$r13,$r12
1c000cac:	29bf82cc 	st.w	$r12,$r22,-32(0xfe0)
1c000cb0:	29bfb2c0 	st.w	$r0,$r22,-20(0xfec)
1c000cb4:	29bfb2c0 	st.w	$r0,$r22,-20(0xfec)
1c000cb8:	50005400 	b	84(0x54) # 1c000d0c <show_img+0xc0>
1c000cbc:	28bfb2cd 	ld.w	$r13,$r22,-20(0xfec)
1c000cc0:	0281400c 	addi.w	$r12,$r0,80(0x50)
1c000cc4:	001c31ac 	mul.w	$r12,$r13,$r12
1c000cc8:	28bf82cd 	ld.w	$r13,$r22,-32(0xfe0)
1c000ccc:	001031ac 	add.w	$r12,$r13,$r12
1c000cd0:	29bf72cc 	st.w	$r12,$r22,-36(0xfdc)
1c000cd4:	28bf92cd 	ld.w	$r13,$r22,-28(0xfe4)
1c000cd8:	28bfb2cc 	ld.w	$r12,$r22,-20(0xfec)
1c000cdc:	001c31ac 	mul.w	$r12,$r13,$r12
1c000ce0:	0040898c 	slli.w	$r12,$r12,0x2
1c000ce4:	28bfa2cd 	ld.w	$r13,$r22,-24(0xfe8)
1c000ce8:	001031ac 	add.w	$r12,$r13,$r12
1c000cec:	29bf62cc 	st.w	$r12,$r22,-40(0xfd8)
1c000cf0:	28bf92c6 	ld.w	$r6,$r22,-28(0xfe4)
1c000cf4:	28bf62c5 	ld.w	$r5,$r22,-40(0xfd8)
1c000cf8:	28bf72c4 	ld.w	$r4,$r22,-36(0xfdc)
1c000cfc:	57fedfff 	bl	-292(0xffffedc) # 1c000bd8 <memcpy_int>
1c000d00:	28bfb2cc 	ld.w	$r12,$r22,-20(0xfec)
1c000d04:	0280058c 	addi.w	$r12,$r12,1(0x1)
1c000d08:	29bfb2cc 	st.w	$r12,$r22,-20(0xfec)
1c000d0c:	28bfb2cd 	ld.w	$r13,$r22,-20(0xfec)
1c000d10:	28bef2cc 	ld.w	$r12,$r22,-68(0xfbc)
1c000d14:	63ffa9ac 	blt	$r13,$r12,-88(0x3ffa8) # 1c000cbc <show_img+0x70>
1c000d18:	03400000 	andi	$r0,$r0,0x0
1c000d1c:	28813061 	ld.w	$r1,$r3,76(0x4c)
1c000d20:	28812076 	ld.w	$r22,$r3,72(0x48)
1c000d24:	02814063 	addi.w	$r3,$r3,80(0x50)
1c000d28:	4c000020 	jirl	$r0,$r1,0

1c000d2c <main>:
1c000d2c:	02bfc063 	addi.w	$r3,$r3,-16(0xff0)
1c000d30:	29803061 	st.w	$r1,$r3,12(0xc)
1c000d34:	29802076 	st.w	$r22,$r3,8(0x8)
1c000d38:	02804076 	addi.w	$r22,$r3,16(0x10)
1c000d3c:	02806009 	addi.w	$r9,$r0,24(0x18)
1c000d40:	02804c08 	addi.w	$r8,$r0,19(0x13)
1c000d44:	1438000c 	lu12i.w	$r12,114688(0x1c000)
1c000d48:	03bdd187 	ori	$r7,$r12,0xf74
1c000d4c:	02802006 	addi.w	$r6,$r0,8(0x8)
1c000d50:	02801405 	addi.w	$r5,$r0,5(0x5)
1c000d54:	14000204 	lu12i.w	$r4,16(0x10)
1c000d58:	57fef7ff 	bl	-268(0xffffef4) # 1c000c4c <show_img>
1c000d5c:	57f3a3ff 	bl	-3168(0xffff3a0) # 1c0000fc <delay_short>
1c000d60:	02806009 	addi.w	$r9,$r0,24(0x18)
1c000d64:	02804c08 	addi.w	$r8,$r0,19(0x13)
1c000d68:	1438002c 	lu12i.w	$r12,114689(0x1c001)
1c000d6c:	03850187 	ori	$r7,$r12,0x140
1c000d70:	02802006 	addi.w	$r6,$r0,8(0x8)
1c000d74:	02801405 	addi.w	$r5,$r0,5(0x5)
1c000d78:	14000204 	lu12i.w	$r4,16(0x10)
1c000d7c:	57fed3ff 	bl	-304(0xffffed0) # 1c000c4c <show_img>
1c000d80:	02806009 	addi.w	$r9,$r0,24(0x18)
1c000d84:	02804c08 	addi.w	$r8,$r0,19(0x13)
1c000d88:	1438000c 	lu12i.w	$r12,114688(0x1c000)
1c000d8c:	03b6a187 	ori	$r7,$r12,0xda8
1c000d90:	02802006 	addi.w	$r6,$r0,8(0x8)
1c000d94:	02801405 	addi.w	$r5,$r0,5(0x5)
1c000d98:	14000204 	lu12i.w	$r4,16(0x10)
1c000d9c:	57feb3ff 	bl	-336(0xffffeb0) # 1c000c4c <show_img>
1c000da0:	57f35fff 	bl	-3236(0xffff35c) # 1c0000fc <delay_short>
1c000da4:	53ff9bff 	b	-104(0xfffff98) # 1c000d3c <main+0x10>

1c000da8 <dinosaur_left>:
1c000da8:	20202020 	ll.w	$r0,$r1,8224(0x2020)
1c000dac:	20202020 	ll.w	$r0,$r1,8224(0x2020)
1c000db0:	58202020 	beq	$r1,$r0,8224(0x2020) # 1c002dd0 <_end+0x1ac4>
1c000db4:	58585858 	beq	$r2,$r24,22616(0x5858) # 1c00660c <_end+0x5300>
1c000db8:	58585858 	beq	$r2,$r24,22616(0x5858) # 1c006610 <_end+0x5304>
1c000dbc:	20202058 	ll.w	$r24,$r2,8224(0x2020)
1c000dc0:	20202020 	ll.w	$r0,$r1,8224(0x2020)
1c000dc4:	20202020 	ll.w	$r0,$r1,8224(0x2020)
1c000dc8:	58582020 	beq	$r1,$r0,22560(0x5820) # 1c0065e8 <_end+0x52dc>
1c000dcc:	58585820 	beq	$r1,$r0,22616(0x5858) # 1c006624 <_end+0x5318>
1c000dd0:	58585858 	beq	$r2,$r24,22616(0x5858) # 1c006628 <_end+0x531c>
1c000dd4:	20205858 	ll.w	$r24,$r2,8280(0x2058)
1c000dd8:	20202020 	ll.w	$r0,$r1,8224(0x2020)
1c000ddc:	20202020 	ll.w	$r0,$r1,8224(0x2020)
1c000de0:	58582020 	beq	$r1,$r0,22560(0x5820) # 1c006600 <_end+0x52f4>
1c000de4:	58585858 	beq	$r2,$r24,22616(0x5858) # 1c00663c <_end+0x5330>
1c000de8:	58585858 	beq	$r2,$r24,22616(0x5858) # 1c006640 <_end+0x5334>
1c000dec:	20205858 	ll.w	$r24,$r2,8280(0x2058)
1c000df0:	20202020 	ll.w	$r0,$r1,8224(0x2020)
1c000df4:	20202020 	ll.w	$r0,$r1,8224(0x2020)
1c000df8:	58582020 	beq	$r1,$r0,22560(0x5820) # 1c006618 <_end+0x530c>
1c000dfc:	58585858 	beq	$r2,$r24,22616(0x5858) # 1c006654 <_end+0x5348>
1c000e00:	58585858 	beq	$r2,$r24,22616(0x5858) # 1c006658 <_end+0x534c>
1c000e04:	20205858 	ll.w	$r24,$r2,8280(0x2058)
1c000e08:	20202020 	ll.w	$r0,$r1,8224(0x2020)
1c000e0c:	20202020 	ll.w	$r0,$r1,8224(0x2020)
1c000e10:	58582020 	beq	$r1,$r0,22560(0x5820) # 1c006630 <_end+0x5324>
1c000e14:	58585858 	beq	$r2,$r24,22616(0x5858) # 1c00666c <_end+0x5360>
1c000e18:	58585858 	beq	$r2,$r24,22616(0x5858) # 1c006670 <_end+0x5364>
1c000e1c:	20205858 	ll.w	$r24,$r2,8280(0x2058)
1c000e20:	20202020 	ll.w	$r0,$r1,8224(0x2020)
1c000e24:	20202020 	ll.w	$r0,$r1,8224(0x2020)
1c000e28:	58582020 	beq	$r1,$r0,22560(0x5820) # 1c006648 <_end+0x533c>
1c000e2c:	58585858 	beq	$r2,$r24,22616(0x5858) # 1c006684 <_end+0x5378>
1c000e30:	20202020 	ll.w	$r0,$r1,8224(0x2020)
1c000e34:	20202020 	ll.w	$r0,$r1,8224(0x2020)
1c000e38:	20202058 	ll.w	$r24,$r2,8224(0x2020)
1c000e3c:	20202020 	ll.w	$r0,$r1,8224(0x2020)
1c000e40:	58585820 	beq	$r1,$r0,22616(0x5858) # 1c006698 <_end+0x538c>
1c000e44:	58585858 	beq	$r2,$r24,22616(0x5858) # 1c00669c <_end+0x5390>
1c000e48:	20585858 	ll.w	$r24,$r2,22616(0x5858)
1c000e4c:	20202020 	ll.w	$r0,$r1,8224(0x2020)
1c000e50:	20202058 	ll.w	$r24,$r2,8224(0x2020)
1c000e54:	20202020 	ll.w	$r0,$r1,8224(0x2020)
1c000e58:	58585858 	beq	$r2,$r24,22616(0x5858) # 1c0066b0 <_end+0x53a4>
1c000e5c:	20205858 	ll.w	$r24,$r2,8280(0x2058)
1c000e60:	20202020 	ll.w	$r0,$r1,8224(0x2020)
1c000e64:	20202020 	ll.w	$r0,$r1,8224(0x2020)
1c000e68:	20205858 	ll.w	$r24,$r2,8280(0x2058)
1c000e6c:	58202020 	beq	$r1,$r0,8224(0x2020) # 1c002e8c <_end+0x1b80>
1c000e70:	58585858 	beq	$r2,$r24,22616(0x5858) # 1c0066c8 <_end+0x53bc>
1c000e74:	20205858 	ll.w	$r24,$r2,8280(0x2058)
1c000e78:	20202020 	ll.w	$r0,$r1,8224(0x2020)
1c000e7c:	20202020 	ll.w	$r0,$r1,8224(0x2020)
1c000e80:	58585858 	beq	$r2,$r24,22616(0x5858) # 1c0066d8 <_end+0x53cc>
1c000e84:	58582020 	beq	$r1,$r0,22560(0x5820) # 1c0066a4 <_end+0x5398>
1c000e88:	58585858 	beq	$r2,$r24,22616(0x5858) # 1c0066e0 <_end+0x53d4>
1c000e8c:	58585858 	beq	$r2,$r24,22616(0x5858) # 1c0066e4 <_end+0x53d8>
1c000e90:	20202020 	ll.w	$r0,$r1,8224(0x2020)
1c000e94:	20202020 	ll.w	$r0,$r1,8224(0x2020)
1c000e98:	58585858 	beq	$r2,$r24,22616(0x5858) # 1c0066f0 <_end+0x53e4>
1c000e9c:	58585858 	beq	$r2,$r24,22616(0x5858) # 1c0066f4 <_end+0x53e8>
1c000ea0:	58585858 	beq	$r2,$r24,22616(0x5858) # 1c0066f8 <_end+0x53ec>
1c000ea4:	58205858 	beq	$r2,$r24,8280(0x2058) # 1c002efc <_end+0x1bf0>
1c000ea8:	20202020 	ll.w	$r0,$r1,8224(0x2020)
1c000eac:	20202020 	ll.w	$r0,$r1,8224(0x2020)
1c000eb0:	58585820 	beq	$r1,$r0,22616(0x5858) # 1c006708 <_end+0x53fc>
1c000eb4:	58585858 	beq	$r2,$r24,22616(0x5858) # 1c00670c <_end+0x5400>
1c000eb8:	58585858 	beq	$r2,$r24,22616(0x5858) # 1c006710 <_end+0x5404>
1c000ebc:	20205858 	ll.w	$r24,$r2,8280(0x2058)
1c000ec0:	20202020 	ll.w	$r0,$r1,8224(0x2020)
1c000ec4:	20202020 	ll.w	$r0,$r1,8224(0x2020)
1c000ec8:	58582020 	beq	$r1,$r0,22560(0x5820) # 1c0066e8 <_end+0x53dc>
1c000ecc:	58585858 	beq	$r2,$r24,22616(0x5858) # 1c006724 <_end+0x5418>
1c000ed0:	58585858 	beq	$r2,$r24,22616(0x5858) # 1c006728 <_end+0x541c>
1c000ed4:	20205858 	ll.w	$r24,$r2,8280(0x2058)
1c000ed8:	20202020 	ll.w	$r0,$r1,8224(0x2020)
1c000edc:	20202020 	ll.w	$r0,$r1,8224(0x2020)
1c000ee0:	58202020 	beq	$r1,$r0,8224(0x2020) # 1c002f00 <_end+0x1bf4>
1c000ee4:	58585858 	beq	$r2,$r24,22616(0x5858) # 1c00673c <_end+0x5430>
1c000ee8:	58585858 	beq	$r2,$r24,22616(0x5858) # 1c006740 <_end+0x5434>
1c000eec:	20202058 	ll.w	$r24,$r2,8224(0x2020)
1c000ef0:	20202020 	ll.w	$r0,$r1,8224(0x2020)
1c000ef4:	20202020 	ll.w	$r0,$r1,8224(0x2020)
1c000ef8:	20202020 	ll.w	$r0,$r1,8224(0x2020)
1c000efc:	58585858 	beq	$r2,$r24,22616(0x5858) # 1c006754 <_end+0x5448>
1c000f00:	58585858 	beq	$r2,$r24,22616(0x5858) # 1c006758 <_end+0x544c>
1c000f04:	20202020 	ll.w	$r0,$r1,8224(0x2020)
1c000f08:	20202020 	ll.w	$r0,$r1,8224(0x2020)
1c000f0c:	20202020 	ll.w	$r0,$r1,8224(0x2020)
1c000f10:	20202020 	ll.w	$r0,$r1,8224(0x2020)
1c000f14:	58585820 	beq	$r1,$r0,22616(0x5858) # 1c00676c <_end+0x5460>
1c000f18:	20585820 	ll.w	$r0,$r1,22616(0x5858)
1c000f1c:	20202020 	ll.w	$r0,$r1,8224(0x2020)
1c000f20:	20202020 	ll.w	$r0,$r1,8224(0x2020)
1c000f24:	20202020 	ll.w	$r0,$r1,8224(0x2020)
1c000f28:	20202020 	ll.w	$r0,$r1,8224(0x2020)
1c000f2c:	20585820 	ll.w	$r0,$r1,22616(0x5858)
1c000f30:	58582020 	beq	$r1,$r0,22560(0x5820) # 1c006750 <_end+0x5444>
1c000f34:	20202020 	ll.w	$r0,$r1,8224(0x2020)
1c000f38:	20202020 	ll.w	$r0,$r1,8224(0x2020)
1c000f3c:	20202020 	ll.w	$r0,$r1,8224(0x2020)
1c000f40:	20202020 	ll.w	$r0,$r1,8224(0x2020)
1c000f44:	20205820 	ll.w	$r0,$r1,8280(0x2058)
1c000f48:	20202020 	ll.w	$r0,$r1,8224(0x2020)
1c000f4c:	20202020 	ll.w	$r0,$r1,8224(0x2020)
1c000f50:	20202020 	ll.w	$r0,$r1,8224(0x2020)
1c000f54:	20202020 	ll.w	$r0,$r1,8224(0x2020)
1c000f58:	20202020 	ll.w	$r0,$r1,8224(0x2020)
1c000f5c:	20585820 	ll.w	$r0,$r1,22616(0x5858)
1c000f60:	20202020 	ll.w	$r0,$r1,8224(0x2020)
1c000f64:	20202020 	ll.w	$r0,$r1,8224(0x2020)
1c000f68:	20202020 	ll.w	$r0,$r1,8224(0x2020)
1c000f6c:	20202020 	ll.w	$r0,$r1,8224(0x2020)
1c000f70:	00000000 	0x00000000

1c000f74 <dinosaur_right>:
1c000f74:	20202020 	ll.w	$r0,$r1,8224(0x2020)
1c000f78:	20202020 	ll.w	$r0,$r1,8224(0x2020)
1c000f7c:	58202020 	beq	$r1,$r0,8224(0x2020) # 1c002f9c <_end+0x1c90>
1c000f80:	58585858 	beq	$r2,$r24,22616(0x5858) # 1c0067d8 <_end+0x54cc>
1c000f84:	58585858 	beq	$r2,$r24,22616(0x5858) # 1c0067dc <_end+0x54d0>
1c000f88:	20202058 	ll.w	$r24,$r2,8224(0x2020)
1c000f8c:	20202020 	ll.w	$r0,$r1,8224(0x2020)
1c000f90:	20202020 	ll.w	$r0,$r1,8224(0x2020)
1c000f94:	58582020 	beq	$r1,$r0,22560(0x5820) # 1c0067b4 <_end+0x54a8>
1c000f98:	58585820 	beq	$r1,$r0,22616(0x5858) # 1c0067f0 <_end+0x54e4>
1c000f9c:	58585858 	beq	$r2,$r24,22616(0x5858) # 1c0067f4 <_end+0x54e8>
1c000fa0:	20205858 	ll.w	$r24,$r2,8280(0x2058)
1c000fa4:	20202020 	ll.w	$r0,$r1,8224(0x2020)
1c000fa8:	20202020 	ll.w	$r0,$r1,8224(0x2020)
1c000fac:	58582020 	beq	$r1,$r0,22560(0x5820) # 1c0067cc <_end+0x54c0>
1c000fb0:	58585858 	beq	$r2,$r24,22616(0x5858) # 1c006808 <_end+0x54fc>
1c000fb4:	58585858 	beq	$r2,$r24,22616(0x5858) # 1c00680c <_end+0x5500>
1c000fb8:	20205858 	ll.w	$r24,$r2,8280(0x2058)
1c000fbc:	20202020 	ll.w	$r0,$r1,8224(0x2020)
1c000fc0:	20202020 	ll.w	$r0,$r1,8224(0x2020)
1c000fc4:	58582020 	beq	$r1,$r0,22560(0x5820) # 1c0067e4 <_end+0x54d8>
1c000fc8:	58585858 	beq	$r2,$r24,22616(0x5858) # 1c006820 <_end+0x5514>
1c000fcc:	58585858 	beq	$r2,$r24,22616(0x5858) # 1c006824 <_end+0x5518>
1c000fd0:	20205858 	ll.w	$r24,$r2,8280(0x2058)
1c000fd4:	20202020 	ll.w	$r0,$r1,8224(0x2020)
1c000fd8:	20202020 	ll.w	$r0,$r1,8224(0x2020)
1c000fdc:	58582020 	beq	$r1,$r0,22560(0x5820) # 1c0067fc <_end+0x54f0>
1c000fe0:	58585858 	beq	$r2,$r24,22616(0x5858) # 1c006838 <_end+0x552c>
1c000fe4:	58585858 	beq	$r2,$r24,22616(0x5858) # 1c00683c <_end+0x5530>
1c000fe8:	20205858 	ll.w	$r24,$r2,8280(0x2058)
1c000fec:	20202020 	ll.w	$r0,$r1,8224(0x2020)
1c000ff0:	20202020 	ll.w	$r0,$r1,8224(0x2020)
1c000ff4:	58582020 	beq	$r1,$r0,22560(0x5820) # 1c006814 <_end+0x5508>
1c000ff8:	58585858 	beq	$r2,$r24,22616(0x5858) # 1c006850 <_end+0x5544>
1c000ffc:	20202020 	ll.w	$r0,$r1,8224(0x2020)
1c001000:	20202020 	ll.w	$r0,$r1,8224(0x2020)
1c001004:	20202058 	ll.w	$r24,$r2,8224(0x2020)
1c001008:	20202020 	ll.w	$r0,$r1,8224(0x2020)
1c00100c:	58585820 	beq	$r1,$r0,22616(0x5858) # 1c006864 <_end+0x5558>
1c001010:	58585858 	beq	$r2,$r24,22616(0x5858) # 1c006868 <_end+0x555c>
1c001014:	20585858 	ll.w	$r24,$r2,22616(0x5858)
1c001018:	20202020 	ll.w	$r0,$r1,8224(0x2020)
1c00101c:	20202058 	ll.w	$r24,$r2,8224(0x2020)
1c001020:	20202020 	ll.w	$r0,$r1,8224(0x2020)
1c001024:	58585858 	beq	$r2,$r24,22616(0x5858) # 1c00687c <_end+0x5570>
1c001028:	20205858 	ll.w	$r24,$r2,8280(0x2058)
1c00102c:	20202020 	ll.w	$r0,$r1,8224(0x2020)
1c001030:	20202020 	ll.w	$r0,$r1,8224(0x2020)
1c001034:	20205858 	ll.w	$r24,$r2,8280(0x2058)
1c001038:	58202020 	beq	$r1,$r0,8224(0x2020) # 1c003058 <_end+0x1d4c>
1c00103c:	58585858 	beq	$r2,$r24,22616(0x5858) # 1c006894 <_end+0x5588>
1c001040:	20205858 	ll.w	$r24,$r2,8280(0x2058)
1c001044:	20202020 	ll.w	$r0,$r1,8224(0x2020)
1c001048:	20202020 	ll.w	$r0,$r1,8224(0x2020)
1c00104c:	58585858 	beq	$r2,$r24,22616(0x5858) # 1c0068a4 <_end+0x5598>
1c001050:	58582020 	beq	$r1,$r0,22560(0x5820) # 1c006870 <_end+0x5564>
1c001054:	58585858 	beq	$r2,$r24,22616(0x5858) # 1c0068ac <_end+0x55a0>
1c001058:	58585858 	beq	$r2,$r24,22616(0x5858) # 1c0068b0 <_end+0x55a4>
1c00105c:	20202020 	ll.w	$r0,$r1,8224(0x2020)
1c001060:	20202020 	ll.w	$r0,$r1,8224(0x2020)
1c001064:	58585858 	beq	$r2,$r24,22616(0x5858) # 1c0068bc <_end+0x55b0>
1c001068:	58585858 	beq	$r2,$r24,22616(0x5858) # 1c0068c0 <_end+0x55b4>
1c00106c:	58585858 	beq	$r2,$r24,22616(0x5858) # 1c0068c4 <_end+0x55b8>
1c001070:	58205858 	beq	$r2,$r24,8280(0x2058) # 1c0030c8 <_end+0x1dbc>
1c001074:	20202020 	ll.w	$r0,$r1,8224(0x2020)
1c001078:	20202020 	ll.w	$r0,$r1,8224(0x2020)
1c00107c:	58585820 	beq	$r1,$r0,22616(0x5858) # 1c0068d4 <_end+0x55c8>
1c001080:	58585858 	beq	$r2,$r24,22616(0x5858) # 1c0068d8 <_end+0x55cc>
1c001084:	58585858 	beq	$r2,$r24,22616(0x5858) # 1c0068dc <_end+0x55d0>
1c001088:	20205858 	ll.w	$r24,$r2,8280(0x2058)
1c00108c:	20202020 	ll.w	$r0,$r1,8224(0x2020)
1c001090:	20202020 	ll.w	$r0,$r1,8224(0x2020)
1c001094:	58582020 	beq	$r1,$r0,22560(0x5820) # 1c0068b4 <_end+0x55a8>
1c001098:	58585858 	beq	$r2,$r24,22616(0x5858) # 1c0068f0 <_end+0x55e4>
1c00109c:	58585858 	beq	$r2,$r24,22616(0x5858) # 1c0068f4 <_end+0x55e8>
1c0010a0:	20205858 	ll.w	$r24,$r2,8280(0x2058)
1c0010a4:	20202020 	ll.w	$r0,$r1,8224(0x2020)
1c0010a8:	20202020 	ll.w	$r0,$r1,8224(0x2020)
1c0010ac:	58202020 	beq	$r1,$r0,8224(0x2020) # 1c0030cc <_end+0x1dc0>
1c0010b0:	58585858 	beq	$r2,$r24,22616(0x5858) # 1c006908 <_end+0x55fc>
1c0010b4:	58585858 	beq	$r2,$r24,22616(0x5858) # 1c00690c <_end+0x5600>
1c0010b8:	20202058 	ll.w	$r24,$r2,8224(0x2020)
1c0010bc:	20202020 	ll.w	$r0,$r1,8224(0x2020)
1c0010c0:	20202020 	ll.w	$r0,$r1,8224(0x2020)
1c0010c4:	20202020 	ll.w	$r0,$r1,8224(0x2020)
1c0010c8:	58585858 	beq	$r2,$r24,22616(0x5858) # 1c006920 <_end+0x5614>
1c0010cc:	58585858 	beq	$r2,$r24,22616(0x5858) # 1c006924 <_end+0x5618>
1c0010d0:	20202020 	ll.w	$r0,$r1,8224(0x2020)
1c0010d4:	20202020 	ll.w	$r0,$r1,8224(0x2020)
1c0010d8:	20202020 	ll.w	$r0,$r1,8224(0x2020)
1c0010dc:	20202020 	ll.w	$r0,$r1,8224(0x2020)
1c0010e0:	20585820 	ll.w	$r0,$r1,22616(0x5858)
1c0010e4:	20585820 	ll.w	$r0,$r1,22616(0x5858)
1c0010e8:	20202020 	ll.w	$r0,$r1,8224(0x2020)
1c0010ec:	20202020 	ll.w	$r0,$r1,8224(0x2020)
1c0010f0:	20202020 	ll.w	$r0,$r1,8224(0x2020)
1c0010f4:	20202020 	ll.w	$r0,$r1,8224(0x2020)
1c0010f8:	58582020 	beq	$r1,$r0,22560(0x5820) # 1c006918 <_end+0x560c>
1c0010fc:	20582020 	ll.w	$r0,$r1,22560(0x5820)
1c001100:	20202020 	ll.w	$r0,$r1,8224(0x2020)
1c001104:	20202020 	ll.w	$r0,$r1,8224(0x2020)
1c001108:	20202020 	ll.w	$r0,$r1,8224(0x2020)
1c00110c:	20202020 	ll.w	$r0,$r1,8224(0x2020)
1c001110:	20202020 	ll.w	$r0,$r1,8224(0x2020)
1c001114:	20582020 	ll.w	$r0,$r1,22560(0x5820)
1c001118:	20202020 	ll.w	$r0,$r1,8224(0x2020)
1c00111c:	20202020 	ll.w	$r0,$r1,8224(0x2020)
1c001120:	20202020 	ll.w	$r0,$r1,8224(0x2020)
1c001124:	20202020 	ll.w	$r0,$r1,8224(0x2020)
1c001128:	20202020 	ll.w	$r0,$r1,8224(0x2020)
1c00112c:	58582020 	beq	$r1,$r0,22560(0x5820) # 1c00694c <_end+0x5640>
1c001130:	20202020 	ll.w	$r0,$r1,8224(0x2020)
1c001134:	20202020 	ll.w	$r0,$r1,8224(0x2020)
1c001138:	20202020 	ll.w	$r0,$r1,8224(0x2020)
1c00113c:	00000000 	0x00000000

1c001140 <dinosaur_empty>:
1c001140:	20202020 	ll.w	$r0,$r1,8224(0x2020)
1c001144:	20202020 	ll.w	$r0,$r1,8224(0x2020)
1c001148:	20202020 	ll.w	$r0,$r1,8224(0x2020)
1c00114c:	20202020 	ll.w	$r0,$r1,8224(0x2020)
1c001150:	20202020 	ll.w	$r0,$r1,8224(0x2020)
1c001154:	20202020 	ll.w	$r0,$r1,8224(0x2020)
1c001158:	20202020 	ll.w	$r0,$r1,8224(0x2020)
1c00115c:	20202020 	ll.w	$r0,$r1,8224(0x2020)
1c001160:	20202020 	ll.w	$r0,$r1,8224(0x2020)
1c001164:	20202020 	ll.w	$r0,$r1,8224(0x2020)
1c001168:	20202020 	ll.w	$r0,$r1,8224(0x2020)
1c00116c:	20202020 	ll.w	$r0,$r1,8224(0x2020)
1c001170:	20202020 	ll.w	$r0,$r1,8224(0x2020)
1c001174:	20202020 	ll.w	$r0,$r1,8224(0x2020)
1c001178:	20202020 	ll.w	$r0,$r1,8224(0x2020)
1c00117c:	20202020 	ll.w	$r0,$r1,8224(0x2020)
1c001180:	20202020 	ll.w	$r0,$r1,8224(0x2020)
1c001184:	20202020 	ll.w	$r0,$r1,8224(0x2020)
1c001188:	20202020 	ll.w	$r0,$r1,8224(0x2020)
1c00118c:	20202020 	ll.w	$r0,$r1,8224(0x2020)
1c001190:	20202020 	ll.w	$r0,$r1,8224(0x2020)
1c001194:	20202020 	ll.w	$r0,$r1,8224(0x2020)
1c001198:	20202020 	ll.w	$r0,$r1,8224(0x2020)
1c00119c:	20202020 	ll.w	$r0,$r1,8224(0x2020)
1c0011a0:	20202020 	ll.w	$r0,$r1,8224(0x2020)
1c0011a4:	20202020 	ll.w	$r0,$r1,8224(0x2020)
1c0011a8:	20202020 	ll.w	$r0,$r1,8224(0x2020)
1c0011ac:	20202020 	ll.w	$r0,$r1,8224(0x2020)
1c0011b0:	20202020 	ll.w	$r0,$r1,8224(0x2020)
1c0011b4:	20202020 	ll.w	$r0,$r1,8224(0x2020)
1c0011b8:	20202020 	ll.w	$r0,$r1,8224(0x2020)
1c0011bc:	20202020 	ll.w	$r0,$r1,8224(0x2020)
1c0011c0:	20202020 	ll.w	$r0,$r1,8224(0x2020)
1c0011c4:	20202020 	ll.w	$r0,$r1,8224(0x2020)
1c0011c8:	20202020 	ll.w	$r0,$r1,8224(0x2020)
1c0011cc:	20202020 	ll.w	$r0,$r1,8224(0x2020)
1c0011d0:	20202020 	ll.w	$r0,$r1,8224(0x2020)
1c0011d4:	20202020 	ll.w	$r0,$r1,8224(0x2020)
1c0011d8:	20202020 	ll.w	$r0,$r1,8224(0x2020)
1c0011dc:	20202020 	ll.w	$r0,$r1,8224(0x2020)
1c0011e0:	20202020 	ll.w	$r0,$r1,8224(0x2020)
1c0011e4:	20202020 	ll.w	$r0,$r1,8224(0x2020)
1c0011e8:	20202020 	ll.w	$r0,$r1,8224(0x2020)
1c0011ec:	20202020 	ll.w	$r0,$r1,8224(0x2020)
1c0011f0:	20202020 	ll.w	$r0,$r1,8224(0x2020)
1c0011f4:	20202020 	ll.w	$r0,$r1,8224(0x2020)
1c0011f8:	20202020 	ll.w	$r0,$r1,8224(0x2020)
1c0011fc:	20202020 	ll.w	$r0,$r1,8224(0x2020)
1c001200:	20202020 	ll.w	$r0,$r1,8224(0x2020)
1c001204:	20202020 	ll.w	$r0,$r1,8224(0x2020)
1c001208:	20202020 	ll.w	$r0,$r1,8224(0x2020)
1c00120c:	20202020 	ll.w	$r0,$r1,8224(0x2020)
1c001210:	20202020 	ll.w	$r0,$r1,8224(0x2020)
1c001214:	20202020 	ll.w	$r0,$r1,8224(0x2020)
1c001218:	20202020 	ll.w	$r0,$r1,8224(0x2020)
1c00121c:	20202020 	ll.w	$r0,$r1,8224(0x2020)
1c001220:	20202020 	ll.w	$r0,$r1,8224(0x2020)
1c001224:	20202020 	ll.w	$r0,$r1,8224(0x2020)
1c001228:	20202020 	ll.w	$r0,$r1,8224(0x2020)
1c00122c:	20202020 	ll.w	$r0,$r1,8224(0x2020)
1c001230:	20202020 	ll.w	$r0,$r1,8224(0x2020)
1c001234:	20202020 	ll.w	$r0,$r1,8224(0x2020)
1c001238:	20202020 	ll.w	$r0,$r1,8224(0x2020)
1c00123c:	20202020 	ll.w	$r0,$r1,8224(0x2020)
1c001240:	20202020 	ll.w	$r0,$r1,8224(0x2020)
1c001244:	20202020 	ll.w	$r0,$r1,8224(0x2020)
1c001248:	20202020 	ll.w	$r0,$r1,8224(0x2020)
1c00124c:	20202020 	ll.w	$r0,$r1,8224(0x2020)
1c001250:	20202020 	ll.w	$r0,$r1,8224(0x2020)
1c001254:	20202020 	ll.w	$r0,$r1,8224(0x2020)
1c001258:	20202020 	ll.w	$r0,$r1,8224(0x2020)
1c00125c:	20202020 	ll.w	$r0,$r1,8224(0x2020)
1c001260:	20202020 	ll.w	$r0,$r1,8224(0x2020)
1c001264:	20202020 	ll.w	$r0,$r1,8224(0x2020)
1c001268:	20202020 	ll.w	$r0,$r1,8224(0x2020)
1c00126c:	20202020 	ll.w	$r0,$r1,8224(0x2020)
1c001270:	20202020 	ll.w	$r0,$r1,8224(0x2020)
1c001274:	20202020 	ll.w	$r0,$r1,8224(0x2020)
1c001278:	20202020 	ll.w	$r0,$r1,8224(0x2020)
1c00127c:	20202020 	ll.w	$r0,$r1,8224(0x2020)
1c001280:	20202020 	ll.w	$r0,$r1,8224(0x2020)
1c001284:	20202020 	ll.w	$r0,$r1,8224(0x2020)
1c001288:	20202020 	ll.w	$r0,$r1,8224(0x2020)
1c00128c:	20202020 	ll.w	$r0,$r1,8224(0x2020)
1c001290:	20202020 	ll.w	$r0,$r1,8224(0x2020)
1c001294:	20202020 	ll.w	$r0,$r1,8224(0x2020)
1c001298:	20202020 	ll.w	$r0,$r1,8224(0x2020)
1c00129c:	20202020 	ll.w	$r0,$r1,8224(0x2020)
1c0012a0:	20202020 	ll.w	$r0,$r1,8224(0x2020)
1c0012a4:	20202020 	ll.w	$r0,$r1,8224(0x2020)
1c0012a8:	20202020 	ll.w	$r0,$r1,8224(0x2020)
1c0012ac:	20202020 	ll.w	$r0,$r1,8224(0x2020)
1c0012b0:	20202020 	ll.w	$r0,$r1,8224(0x2020)
1c0012b4:	20202020 	ll.w	$r0,$r1,8224(0x2020)
1c0012b8:	20202020 	ll.w	$r0,$r1,8224(0x2020)
1c0012bc:	20202020 	ll.w	$r0,$r1,8224(0x2020)
1c0012c0:	20202020 	ll.w	$r0,$r1,8224(0x2020)
1c0012c4:	20202020 	ll.w	$r0,$r1,8224(0x2020)
1c0012c8:	20202020 	ll.w	$r0,$r1,8224(0x2020)
1c0012cc:	20202020 	ll.w	$r0,$r1,8224(0x2020)
1c0012d0:	20202020 	ll.w	$r0,$r1,8224(0x2020)
1c0012d4:	20202020 	ll.w	$r0,$r1,8224(0x2020)
1c0012d8:	20202020 	ll.w	$r0,$r1,8224(0x2020)
1c0012dc:	20202020 	ll.w	$r0,$r1,8224(0x2020)
1c0012e0:	20202020 	ll.w	$r0,$r1,8224(0x2020)
1c0012e4:	20202020 	ll.w	$r0,$r1,8224(0x2020)
1c0012e8:	20202020 	ll.w	$r0,$r1,8224(0x2020)
1c0012ec:	20202020 	ll.w	$r0,$r1,8224(0x2020)
1c0012f0:	20202020 	ll.w	$r0,$r1,8224(0x2020)
1c0012f4:	20202020 	ll.w	$r0,$r1,8224(0x2020)
1c0012f8:	20202020 	ll.w	$r0,$r1,8224(0x2020)
1c0012fc:	20202020 	ll.w	$r0,$r1,8224(0x2020)
1c001300:	20202020 	ll.w	$r0,$r1,8224(0x2020)
1c001304:	20202020 	ll.w	$r0,$r1,8224(0x2020)
	...

Disassembly of section .eh_frame:

1c00130c <.eh_frame>:
1c00130c:	0000000c 	0x0000000c
1c001310:	00000000 	0x00000000
1c001314:	7c010003 	0x7c010003
1c001318:	00030c01 	0x00030c01
1c00131c:	00000030 	0x00000030
1c001320:	00000014 	0x00000014
1c001324:	000100d4 	0x000100d4
1c001328:	0000007c 	0x0000007c
1c00132c:	00000404 	0x00000404
1c001330:	04200e00 	csrxchg	$r0,$r16,0x803
1c001334:	00000004 	0x00000004
1c001338:	04040196 	csrxchg	$r22,$r12,0x100
1c00133c:	0c000000 	0x0c000000
1c001340:	68040016 	bltu	$r0,$r22,1024(0x400) # 1c001740 <_end+0x434>
1c001344:	d6000000 	0xd6000000
1c001348:	00000404 	0x00000404
1c00134c:	00030d00 	0x00030d00
1c001350:	00000030 	0x00000030
1c001354:	00000048 	0x00000048
1c001358:	00010150 	0x00010150
1c00135c:	0000005c 	0x0000005c
1c001360:	00000404 	0x00000404
1c001364:	04200e00 	csrxchg	$r0,$r16,0x803
1c001368:	00000004 	0x00000004
1c00136c:	04040196 	csrxchg	$r22,$r12,0x100
1c001370:	0c000000 	0x0c000000
1c001374:	48040016 	bceqz	$fcc0,-2620416(0x580400) # 1bd81774 <_start-0x27e8d0>
1c001378:	d6000000 	0xd6000000
1c00137c:	00000404 	0x00000404
1c001380:	00030d00 	0x00030d00
1c001384:	00000038 	0x00000038
1c001388:	0000007c 	0x0000007c
1c00138c:	000101ac 	0x000101ac
1c001390:	00000174 	0x00000174
1c001394:	00000404 	0x00000404
1c001398:	04100e00 	csrxchg	$r0,$r16,0x403
1c00139c:	00000008 	0x00000008
1c0013a0:	02960181 	addi.w	$r1,$r12,1408(0x580)
1c0013a4:	00000404 	0x00000404
1c0013a8:	00160c00 	orn	$r0,$r0,$r3
1c0013ac:	00015804 	0x00015804
1c0013b0:	0404c100 	csrxchg	$r0,$r8,0x130
1c0013b4:	d6000000 	0xd6000000
1c0013b8:	00000404 	0x00000404
1c0013bc:	00030d00 	0x00030d00
1c0013c0:	00000030 	0x00000030
1c0013c4:	000000b8 	0x000000b8
1c0013c8:	00010320 	asrtle.d	$r25,$r0
1c0013cc:	0000090c 	0x0000090c
1c0013d0:	00000404 	0x00000404
1c0013d4:	04200e00 	csrxchg	$r0,$r16,0x803
1c0013d8:	00000004 	0x00000004
1c0013dc:	04040196 	csrxchg	$r22,$r12,0x100
1c0013e0:	0c000000 	0x0c000000
1c0013e4:	f8040016 	0xf8040016
1c0013e8:	d6000008 	0xd6000008
1c0013ec:	00000404 	0x00000404
1c0013f0:	00030d00 	0x00030d00
1c0013f4:	00000030 	0x00000030
1c0013f8:	000000ec 	0x000000ec
1c0013fc:	00010c2c 	0x00010c2c
1c001400:	00000074 	0x00000074
1c001404:	00000404 	0x00000404
1c001408:	04300e00 	csrxchg	$r0,$r16,0xc03
1c00140c:	00000004 	0x00000004
1c001410:	04040196 	csrxchg	$r22,$r12,0x100
1c001414:	0c000000 	0x0c000000
1c001418:	60040016 	blt	$r0,$r22,1024(0x400) # 1c001818 <_end+0x50c>
1c00141c:	d6000000 	0xd6000000
1c001420:	00000404 	0x00000404
1c001424:	00030d00 	0x00030d00
1c001428:	00000038 	0x00000038
1c00142c:	00000120 	0x00000120
1c001430:	00010ca0 	asrtle.d	$r5,$r3
1c001434:	000000e0 	0x000000e0
1c001438:	00000404 	0x00000404
1c00143c:	04500e00 	csrxchg	$r0,$r16,0x1403
1c001440:	00000008 	0x00000008
1c001444:	02960181 	addi.w	$r1,$r12,1408(0x580)
1c001448:	00000404 	0x00000404
1c00144c:	00160c00 	orn	$r0,$r0,$r3
1c001450:	0000c404 	0x0000c404
1c001454:	0404c100 	csrxchg	$r0,$r8,0x130
1c001458:	d6000000 	0xd6000000
1c00145c:	00000404 	0x00000404
1c001460:	00030d00 	0x00030d00
1c001464:	00000024 	0x00000024
1c001468:	0000015c 	0x0000015c
1c00146c:	00010d80 	asrtle.d	$r12,$r3
1c001470:	0000007c 	0x0000007c
1c001474:	00000404 	0x00000404
1c001478:	04100e00 	csrxchg	$r0,$r16,0x403
1c00147c:	00000008 	0x00000008
1c001480:	02960181 	addi.w	$r1,$r12,1408(0x580)
1c001484:	00000404 	0x00000404
1c001488:	00160c00 	orn	$r0,$r0,$r3

Disassembly of section .comment:

00000000 <.comment>:
   0:	3a434347 	0x3a434347
   4:	4e472820 	jirl	$r0,$r1,-112856(0x24728)
   8:	38202955 	ldx.bu	$r21,$r10,$r10
   c:	302e332e 	vldrepl.w	$vr14,$r25,-464(0xe30)
	...

Disassembly of section .debug_aranges:

00000000 <.debug_aranges>:
   0:	0000001c 	0x0000001c
   4:	00000002 	0x00000002
   8:	00040000 	alsl.w	$r0,$r0,$r0,0x1
   c:	00000000 	0x00000000
  10:	000100d4 	0x000100d4
  14:	00000d28 	0x00000d28
	...

Disassembly of section .debug_info:

00000000 <.debug_info>:
   0:	000003dc 	0x000003dc
   4:	00000004 	0x00000004
   8:	01040000 	0x01040000
   c:	20554e47 	ll.w	$r7,$r18,21836(0x554c)
  10:	20373143 	ll.w	$r3,$r10,14128(0x3730)
  14:	2e332e38 	0x2e332e38
  18:	6d2d2030 	bgeu	$r1,$r16,77088(0x12d20) # 12d38 <_start-0x1bfed30c>
  1c:	3d696261 	0x3d696261
  20:	33706c69 	xvstelm.h	$xr9,$r3,54(0x36),0xc
  24:	2d207332 	0x2d207332
  28:	6372616d 	blt	$r11,$r13,-36256(0x37260) # ffff7288 <__GNU_EH_FRAME_HDR+0xe3fe648c>
  2c:	6f6c3d68 	bgeu	$r11,$r8,-37828(0x36c3c) # ffff6c68 <__GNU_EH_FRAME_HDR+0xe3fe5e6c>
  30:	61676e6f 	blt	$r19,$r15,92012(0x1676c) # 1679c <_start-0x1bfe98a8>
  34:	33686372 	xvstelm.h	$xr18,$r27,48(0x30),0xa
  38:	2d207232 	0x2d207232
  3c:	7570666d 	0x7570666d
  40:	6e6f6e3d 	bgeu	$r17,$r29,-102548(0x26f6c) # fffe6fac <__GNU_EH_FRAME_HDR+0xe3fd61b0>
  44:	6d2d2065 	bgeu	$r3,$r5,77088(0x12d20) # 12d64 <_start-0x1bfed2e0>
  48:	646f6d63 	bge	$r11,$r3,28524(0x6f6c) # 6fb4 <_start-0x1bff9090>
  4c:	6e3d6c65 	bgeu	$r3,$r5,-115348(0x23d6c) # fffe3db8 <__GNU_EH_FRAME_HDR+0xe3fd2fbc>
  50:	616d726f 	blt	$r19,$r15,93552(0x16d70) # 16dc0 <_start-0x1bfe9284>
  54:	6d2d206c 	bgeu	$r3,$r12,77088(0x12d20) # 12d74 <_start-0x1bfed2d0>
  58:	656e7574 	bge	$r11,$r20,93812(0x16e74) # 16ecc <_start-0x1bfe9178>
  5c:	6f6f6c3d 	bgeu	$r1,$r29,-37012(0x36f6c) # ffff6fc8 <__GNU_EH_FRAME_HDR+0xe3fe61cc>
  60:	7261676e 	0x7261676e
  64:	32336863 	0x32336863
  68:	672d2072 	bge	$r3,$r18,-53984(0x32d20) # ffff2d88 <__GNU_EH_FRAME_HDR+0xe3fe1f8c>
  6c:	6e662d20 	bgeu	$r9,$r0,-104916(0x2662c) # fffe6698 <__GNU_EH_FRAME_HDR+0xe3fd589c>
  70:	75622d6f 	0x75622d6f
  74:	69746c69 	bltu	$r3,$r9,95340(0x1746c) # 174e0 <_start-0x1bfe8b64>
  78:	662d206e 	bge	$r3,$r14,-119520(0x22d20) # fffe2d98 <__GNU_EH_FRAME_HDR+0xe3fd1f9c>
  7c:	752d6f6e 	xvadd.q	$xr14,$xr27,$xr27
  80:	6c2d6573 	bgeu	$r11,$r19,11620(0x2d64) # 2de4 <_start-0x1bffd260>
  84:	656b6e69 	bge	$r19,$r9,93036(0x16b6c) # 16bf0 <_start-0x1bfe9454>
  88:	6c702d72 	bgeu	$r11,$r18,28716(0x702c) # 70b4 <_start-0x1bff8f90>
  8c:	6e696775 	bgeu	$r27,$r21,-104092(0x26964) # fffe69f0 <__GNU_EH_FRAME_HDR+0xe3fd5bf4>
  90:	616d0c00 	blt	$r0,$r0,93452(0x16d0c) # 16d9c <_start-0x1bfe92a8>
  94:	632e6e69 	blt	$r19,$r9,-53652(0x32e6c) # ffff2f00 <__GNU_EH_FRAME_HDR+0xe3fe2104>
  98:	6f682f00 	bgeu	$r24,$r0,-38868(0x3682c) # ffff68c4 <__GNU_EH_FRAME_HDR+0xe3fe5ac8>
  9c:	752f656d 	xvsigncov.w	$xr13,$xr11,$xr25
  a0:	6a72702f 	bltu	$r1,$r15,-101776(0x27270) # fffe7310 <__GNU_EH_FRAME_HDR+0xe3fd6514>
  a4:	6f732f73 	bgeu	$r27,$r19,-36052(0x3732c) # ffff73d0 <__GNU_EH_FRAME_HDR+0xe3fe65d4>
  a8:	732f3263 	0x732f3263
  ac:	6c756d69 	bgeu	$r11,$r9,30060(0x756c) # 7618 <_start-0x1bff8a2c>
  b0:	6f697461 	bgeu	$r3,$r1,-38540(0x36974) # ffff6a24 <__GNU_EH_FRAME_HDR+0xe3fe5c28>
  b4:	6f732f6e 	bgeu	$r27,$r14,-36052(0x3732c) # ffff73e0 <__GNU_EH_FRAME_HDR+0xe3fe65e4>
  b8:	745f3263 	0x745f3263
  bc:	32747365 	0x32747365
  c0:	6f63635f 	bgeu	$r26,$r31,-40096(0x36360) # ffff6420 <__GNU_EH_FRAME_HDR+0xe3fe5624>
  c4:	742f6564 	xvaddwev.d.wu	$xr4,$xr11,$xr25
  c8:	63747365 	blt	$r27,$r5,-35728(0x37470) # ffff7538 <__GNU_EH_FRAME_HDR+0xe3fe673c>
  cc:	0065646f 	bstrins.w	$r15,$r3,0x5,0x19
  d0:	000100d4 	0x000100d4
  d4:	00000d28 	0x00000d28
  d8:	00000000 	0x00000000
  dc:	0000fd02 	0x0000fd02
  e0:	0000ed00 	0x0000ed00
  e4:	00ed0300 	bstrpick.d	$r0,$r24,0x2d,0x0
  e8:	01c80000 	0x01c80000
  ec:	07040400 	0x07040400
  f0:	69736e75 	bltu	$r19,$r21,95084(0x1736c) # 1745c <_start-0x1bfe8be8>
  f4:	64656e67 	bge	$r19,$r7,25964(0x656c) # 6660 <_start-0x1bff99e4>
  f8:	746e6920 	0x746e6920
  fc:	06010400 	cacop	0x0,$r0,65(0x41)
 100:	72616863 	0x72616863
 104:	69640500 	bltu	$r8,$r0,91140(0x16404) # 16508 <_start-0x1bfe9b3c>
 108:	61736f6e 	blt	$r27,$r14,95084(0x1736c) # 17474 <_start-0x1bfe8bd0>
 10c:	6c5f7275 	bgeu	$r19,$r21,24432(0x5f70) # 607c <_start-0x1bff9fc8>
 110:	00746665 	bstrins.w	$r5,$r19,0x14,0x19
 114:	dc06f501 	0xdc06f501
 118:	05000000 	0x05000000
 11c:	01800003 	0x01800003
 120:	69640600 	bltu	$r16,$r0,91140(0x16404) # 16524 <_start-0x1bfe9b20>
 124:	61736f6e 	blt	$r27,$r14,95084(0x1736c) # 17490 <_start-0x1bfe8bb4>
 128:	725f7275 	0x725f7275
 12c:	74686769 	xvavgr.b	$xr9,$xr27,$xr25
 130:	010d0100 	fmaxa.d	$f0,$f8,$f0
 134:	0000dc06 	0x0000dc06
 138:	cc030500 	0xcc030500
 13c:	06000181 	cacop	0x1,$r12,0
 140:	6f6e6964 	bgeu	$r11,$r4,-37272(0x36e68) # ffff6fa8 <__GNU_EH_FRAME_HDR+0xe3fe61ac>
 144:	72756173 	0x72756173
 148:	706d655f 	0x706d655f
 14c:	01007974 	0x01007974
 150:	dc060125 	0xdc060125
 154:	05000000 	0x05000000
 158:	01839803 	0x01839803
 15c:	616d0700 	blt	$r24,$r0,93444(0x16d04) # 16e60 <_start-0x1bfe91e4>
 160:	01006e69 	0x01006e69
 164:	7505015a 	xvssrln.hu.w	$xr26,$xr10,$xr0
 168:	80000001 	0x80000001
 16c:	7c00010d 	0x7c00010d
 170:	01000000 	0x01000000
 174:	0504049c 	0x0504049c
 178:	00746e69 	bstrins.w	$r9,$r19,0x14,0x1b
 17c:	6f687308 	bgeu	$r24,$r8,-38800(0x36870) # ffff69ec <__GNU_EH_FRAME_HDR+0xe3fe5bf0>
 180:	6d695f77 	bgeu	$r27,$r23,92508(0x1695c) # 16adc <_start-0x1bfe9568>
 184:	48010067 	bceqz	$fcc3,1835264(0x1c0100) # 1c0284 <_start-0x1be3fdc0>
 188:	0ca00601 	xvfcmp.caf.d	$xr1,$xr16,$xr1
 18c:	00e00001 	bstrpick.d	$r1,$r0,0x20,0x0
 190:	9c010000 	0x9c010000
 194:	00000291 	0x00000291
 198:	00000009 	0x00000009
 19c:	01480100 	0x01480100
 1a0:	00029115 	0x00029115
 1a4:	4c910200 	jirl	$r0,$r16,37120(0x9100)
 1a8:	736f700a 	vssrarni.du.q	$vr10,$vr0,0x5c
 1ac:	776f725f 	xvssrarni.du.q	$xr31,$xr18,0x5c
 1b0:	01480100 	0x01480100
 1b4:	00017525 	0x00017525
 1b8:	48910200 	0x48910200
 1bc:	736f700a 	vssrarni.du.q	$vr10,$vr0,0x5c
 1c0:	6c6f635f 	bgeu	$r26,$r31,28512(0x6f60) # 7120 <_start-0x1bff8f24>
 1c4:	01480100 	0x01480100
 1c8:	00017532 	0x00017532
 1cc:	44910200 	bnez	$r16,37120(0x9100) # 92cc <_start-0x1bff6d78>
 1d0:	6d69700a 	bgeu	$r0,$r10,92528(0x16970) # 16b40 <_start-0x1bfe9504>
 1d4:	48010067 	bceqz	$fcc3,1835264(0x1c0100) # 1c02d4 <_start-0x1be3fd70>
 1d8:	02974101 	addi.w	$r1,$r8,1488(0x5d0)
 1dc:	91020000 	0x91020000
 1e0:	6f720a40 	bgeu	$r18,$r0,-36344(0x37208) # ffff73e8 <__GNU_EH_FRAME_HDR+0xe3fe65ec>
 1e4:	48010077 	bceqz	$fcc3,-2359040(0x5c0100) # ffdc02e4 <__GNU_EH_FRAME_HDR+0xe3daf4e8>
 1e8:	01754b01 	0x01754b01
 1ec:	91030000 	0x91030000
 1f0:	630a7fbc 	blt	$r29,$r28,-62852(0x30a7c) # ffff0c6c <__GNU_EH_FRAME_HDR+0xe3fdfe70>
 1f4:	01006c6f 	0x01006c6f
 1f8:	75540148 	0x75540148
 1fc:	03000001 	lu52i.d	$r1,$r0,0
 200:	0b7fb891 	0x0b7fb891
 204:	676d6970 	bge	$r11,$r16,-37528(0x36d68) # ffff6f6c <__GNU_EH_FRAME_HDR+0xe3fe6170>
 208:	746e695f 	0x746e695f
 20c:	014a0100 	0x014a0100
 210:	00029107 	0x00029107
 214:	68910200 	bltu	$r16,$r0,37120(0x9100) # 9314 <_start-0x1bff6d30>
 218:	6c6f630b 	bgeu	$r24,$r11,28512(0x6f60) # 7178 <_start-0x1bff8ecc>
 21c:	746e695f 	0x746e695f
 220:	014b0100 	0x014b0100
 224:	00017506 	0x00017506
 228:	64910200 	bge	$r16,$r0,37120(0x9100) # 9328 <_start-0x1bff6d1c>
 22c:	6469760b 	bge	$r16,$r11,26996(0x6974) # 6ba0 <_start-0x1bff94a4>
 230:	625f6f65 	blt	$r27,$r5,-106644(0x25f6c) # fffe619c <__GNU_EH_FRAME_HDR+0xe3fd53a0>
 234:	5f657361 	bne	$r27,$r1,-39568(0x36570) # ffff67a4 <__GNU_EH_FRAME_HDR+0xe3fe59a8>
 238:	68746977 	bltu	$r11,$r23,29800(0x7468) # 76a0 <_start-0x1bff89a4>
 23c:	66666f5f 	bge	$r26,$r31,-104852(0x2666c) # fffe68a8 <__GNU_EH_FRAME_HDR+0xe3fd5aac>
 240:	00746573 	bstrins.w	$r19,$r11,0x14,0x19
 244:	07014c01 	0x07014c01
 248:	00000291 	0x00000291
 24c:	0b609102 	0x0b609102
 250:	4e010069 	jirl	$r9,$r3,-130816(0x20100)
 254:	01750601 	0x01750601
 258:	91020000 	0x91020000
 25c:	0d100c6c 	vbitsel.v	$vr12,$vr3,$vr3,$vr0
 260:	00440001 	0x00440001
 264:	700b0000 	vadd.w	$vr0,$vr0,$vr0
 268:	00776f72 	bstrins.w	$r18,$r27,0x17,0x1b
 26c:	08015201 	0x08015201
 270:	00000291 	0x00000291
 274:	0b5c9102 	0x0b5c9102
 278:	676d6970 	bge	$r11,$r16,-37528(0x36d68) # ffff6fe0 <__GNU_EH_FRAME_HDR+0xe3fe61e4>
 27c:	5f776f72 	bne	$r27,$r18,-34964(0x3776c) # ffff79e8 <__GNU_EH_FRAME_HDR+0xe3fe6bec>
 280:	00746e69 	bstrins.w	$r9,$r19,0x14,0x1b
 284:	08015301 	0x08015301
 288:	00000291 	0x00000291
 28c:	00589102 	0x00589102
 290:	75040d00 	0x75040d00
 294:	0d000001 	fsel	$f1,$f0,$f0,$fcc0
 298:	0000fd04 	0x0000fd04
 29c:	656d0e00 	bge	$r16,$r0,93452(0x16d0c) # 16fa8 <_start-0x1bfe909c>
 2a0:	7970636d 	0x7970636d
 2a4:	746e695f 	0x746e695f
 2a8:	013c0100 	0x013c0100
 2ac:	010c2c06 	0x010c2c06
 2b0:	00007400 	0x00007400
 2b4:	fa9c0100 	0xfa9c0100
 2b8:	0a000002 	0x0a000002
 2bc:	00747364 	bstrins.w	$r4,$r27,0x14,0x1c
 2c0:	17013c01 	lu32i.d	$r1,-521760(0x809e0)
 2c4:	00000291 	0x00000291
 2c8:	0a5c9102 	xvfmsub.s	$xr2,$xr8,$xr4,$xr25
 2cc:	00637273 	bstrins.w	$r19,$r19,0x3,0x1c
 2d0:	21013c01 	sc.w	$r1,$r0,316(0x13c)
 2d4:	00000291 	0x00000291
 2d8:	0a589102 	xvfmsub.s	$xr2,$xr8,$xr4,$xr17
 2dc:	00746e63 	bstrins.w	$r3,$r19,0x14,0x1b
 2e0:	2a013c01 	ld.bu	$r1,$r0,79(0x4f)
 2e4:	00000175 	0x00000175
 2e8:	0b549102 	0x0b549102
 2ec:	3e010069 	0x3e010069
 2f0:	01750601 	0x01750601
 2f4:	91020000 	0x91020000
 2f8:	640f006c 	bge	$r3,$r12,3840(0xf00) # 11f8 <_start-0x1bffee4c>
 2fc:	6c707369 	bgeu	$r27,$r9,28784(0x7070) # 736c <_start-0x1bff8cd8>
 300:	645f7961 	bge	$r11,$r1,24440(0x5f78) # 6278 <_start-0x1bff9dcc>
 304:	736f6e69 	vssrarni.du.q	$vr9,$vr19,0x5b
 308:	00727561 	bstrins.w	$r1,$r11,0x12,0x1d
 30c:	20065601 	ll.w	$r1,$r16,1620(0x654)
 310:	0c000103 	0x0c000103
 314:	01000009 	0x01000009
 318:	0003479c 	0x0003479c
 31c:	00001000 	clo.w	$r0,$r0
 320:	56010000 	bl	131328(0x20100) # 20420 <_start-0x1bfdfc24>
 324:	0002911d 	0x0002911d
 328:	6c910200 	bgeu	$r16,$r0,37120(0x9100) # 9428 <_start-0x1bff6c1c>
 32c:	01007811 	0x01007811
 330:	01752d56 	0x01752d56
 334:	91020000 	0x91020000
 338:	00791168 	bstrins.w	$r8,$r11,0x19,0x4
 33c:	75345601 	0x75345601
 340:	02000001 	slti	$r1,$r0,0
 344:	12006491 	addu16i.d	$r17,$r4,-32743(0x8019)
 348:	70736964 	vmin.w	$vr4,$vr11,$vr26
 34c:	0079616c 	bstrins.w	$r12,$r11,0x19,0x18
 350:	ac062301 	0xac062301
 354:	74000101 	xvseq.b	$xr1,$xr8,$xr0
 358:	01000001 	0x01000001
 35c:	65640f9c 	bge	$r28,$r28,91148(0x1640c) # 16768 <_start-0x1bfe98dc>
 360:	5f79616c 	bne	$r11,$r12,-34464(0x37960) # ffff7cc0 <__GNU_EH_FRAME_HDR+0xe3fe6ec4>
 364:	726f6873 	0x726f6873
 368:	17010074 	lu32i.d	$r20,-522237(0x80803)
 36c:	01015006 	fadd.d	$f6,$f0,$f20
 370:	00005c00 	ext.w.b	$r0,$r0
 374:	a39c0100 	0xa39c0100
 378:	13000003 	addu16i.d	$r3,$r0,-16384(0xc000)
 37c:	19010069 	pcaddi	$r9,-522237(0x80803)
 380:	00017506 	0x00017506
 384:	6c910200 	bgeu	$r16,$r0,37120(0x9100) # 9484 <_start-0x1bff6bc0>
 388:	01006a13 	0x01006a13
 38c:	0175061a 	0x0175061a
 390:	91020000 	0x91020000
 394:	006e1364 	bstrins.w	$r4,$r27,0xe,0x4
 398:	75061b01 	0x75061b01
 39c:	02000001 	slti	$r1,$r0,0
 3a0:	14006891 	lu12i.w	$r17,836(0x344)
 3a4:	616c6564 	blt	$r11,$r4,93284(0x16c64) # 17008 <_start-0x1bfe903c>
 3a8:	08010079 	0x08010079
 3ac:	0100d406 	fadd.s	$f6,$f0,$f21
 3b0:	00007c00 	0x00007c00
 3b4:	139c0100 	addu16i.d	$r0,$r8,-6400(0xe700)
 3b8:	0a010069 	0x0a010069
 3bc:	00017506 	0x00017506
 3c0:	6c910200 	bgeu	$r16,$r0,37120(0x9100) # 94c0 <_start-0x1bff6b84>
 3c4:	01006a13 	0x01006a13
 3c8:	0175060b 	0x0175060b
 3cc:	91020000 	0x91020000
 3d0:	006e1368 	bstrins.w	$r8,$r27,0xe,0x4
 3d4:	75060c01 	0x75060c01
 3d8:	02000001 	slti	$r1,$r0,0
 3dc:	00006491 	rdtimeh.w	$r17,$r4

Disassembly of section .debug_abbrev:

00000000 <.debug_abbrev>:
   0:	25011101 	stptr.w	$r1,$r8,272(0x110)
   4:	030b1308 	lu52i.d	$r8,$r24,708(0x2c4)
   8:	11081b08 	addu16i.d	$r8,$r24,16902(0x4206)
   c:	10061201 	addu16i.d	$r1,$r16,388(0x184)
  10:	02000017 	slti	$r23,$r0,0
  14:	13490101 	addu16i.d	$r1,$r8,-11712(0xd240)
  18:	00001301 	clo.w	$r1,$r24
  1c:	49002103 	bcnez	$fcc0,852000(0xd0020) # d003c <_start-0x1bf30008>
  20:	00052f13 	alsl.w	$r19,$r24,$r11,0x3
  24:	00240400 	crc.w.b.w	$r0,$r0,$r1
  28:	0b3e0b0b 	0x0b3e0b0b
  2c:	00000803 	0x00000803
  30:	03003405 	lu52i.d	$r5,$r0,13(0xd)
  34:	3b0b3a08 	0x3b0b3a08
  38:	490b390b 	bcnez	$fcc0,2951992(0x2d0b38) # 2d0b70 <_start-0x1bd2f4d4>
  3c:	02193f13 	slti	$r19,$r24,1615(0x64f)
  40:	06000018 	cacop	0x18,$r0,0
  44:	08030034 	0x08030034
  48:	053b0b3a 	0x053b0b3a
  4c:	13490b39 	addu16i.d	$r25,$r25,-11710(0xd242)
  50:	1802193f 	pcaddi	$r31,4297(0x10c9)
  54:	2e070000 	0x2e070000
  58:	03193f00 	lu52i.d	$r0,$r24,1615(0x64f)
  5c:	3b0b3a08 	0x3b0b3a08
  60:	270b3905 	stptr.d	$r5,$r8,2872(0xb38)
  64:	11134919 	addu16i.d	$r25,$r8,17618(0x44d2)
  68:	40061201 	beqz	$r16,263696(0x40610) # 40678 <_start-0x1bfbf9cc>
  6c:	19429618 	pcaddi	$r24,-387920(0xa14b0)
  70:	2e080000 	0x2e080000
  74:	03193f01 	lu52i.d	$r1,$r24,1615(0x64f)
  78:	3b0b3a08 	0x3b0b3a08
  7c:	270b3905 	stptr.d	$r5,$r8,2872(0xb38)
  80:	12011119 	addu16i.d	$r25,$r8,-32700(0x8044)
  84:	96184006 	0x96184006
  88:	13011942 	addu16i.d	$r2,$r10,-16314(0xc046)
  8c:	05090000 	0x05090000
  90:	3a0e0300 	0x3a0e0300
  94:	39053b0b 	0x39053b0b
  98:	0213490b 	slti	$r11,$r8,1234(0x4d2)
  9c:	0a000018 	0x0a000018
  a0:	08030005 	0x08030005
  a4:	053b0b3a 	0x053b0b3a
  a8:	13490b39 	addu16i.d	$r25,$r25,-11710(0xd242)
  ac:	00001802 	cto.w	$r2,$r0
  b0:	0300340b 	lu52i.d	$r11,$r0,13(0xd)
  b4:	3b0b3a08 	0x3b0b3a08
  b8:	490b3905 	bcnez	$fcc0,1379128(0x150b38) # 150bf0 <_start-0x1beaf454>
  bc:	00180213 	sra.w	$r19,$r16,$r0
  c0:	010b0c00 	fmin.d	$f0,$f0,$f3
  c4:	06120111 	cacop	0x11,$r8,1152(0x480)
  c8:	0f0d0000 	0x0f0d0000
  cc:	490b0b00 	0x490b0b00
  d0:	0e000013 	0x0e000013
  d4:	193f012e 	pcaddi	$r14,-395255(0x9f809)
  d8:	0b3a0803 	0x0b3a0803
  dc:	0b39053b 	0x0b39053b
  e0:	01111927 	fscaleb.d	$f7,$f9,$f6
  e4:	18400612 	pcaddi	$r18,131120(0x20030)
  e8:	01194297 	0x01194297
  ec:	0f000013 	0x0f000013
  f0:	193f012e 	pcaddi	$r14,-395255(0x9f809)
  f4:	0b3a0803 	0x0b3a0803
  f8:	0b390b3b 	0x0b390b3b
  fc:	01111927 	fscaleb.d	$f7,$f9,$f6
 100:	18400612 	pcaddi	$r18,131120(0x20030)
 104:	01194297 	0x01194297
 108:	10000013 	addu16i.d	$r19,$r0,0
 10c:	0e030005 	0x0e030005
 110:	0b3b0b3a 	0x0b3b0b3a
 114:	13490b39 	addu16i.d	$r25,$r25,-11710(0xd242)
 118:	00001802 	cto.w	$r2,$r0
 11c:	03000511 	lu52i.d	$r17,$r8,1(0x1)
 120:	3b0b3a08 	0x3b0b3a08
 124:	490b390b 	bcnez	$fcc0,2951992(0x2d0b38) # 2d0c5c <_start-0x1bd2f3e8>
 128:	00180213 	sra.w	$r19,$r16,$r0
 12c:	002e1200 	0x002e1200
 130:	0803193f 	0x0803193f
 134:	0b3b0b3a 	0x0b3b0b3a
 138:	19270b39 	pcaddi	$r25,-444327(0x93859)
 13c:	06120111 	cacop	0x11,$r8,1152(0x480)
 140:	42961840 	beqz	$r2,169496(0x29618) # 29758 <_start-0x1bfd68ec>
 144:	13000019 	addu16i.d	$r25,$r0,-16384(0xc000)
 148:	08030034 	0x08030034
 14c:	0b3b0b3a 	0x0b3b0b3a
 150:	13490b39 	addu16i.d	$r25,$r25,-11710(0xd242)
 154:	00001802 	cto.w	$r2,$r0
 158:	3f012e14 	0x3f012e14
 15c:	3a080319 	0x3a080319
 160:	390b3b0b 	0x390b3b0b
 164:	1119270b 	addu16i.d	$r11,$r24,17993(0x4649)
 168:	40061201 	beqz	$r16,263696(0x40610) # 40778 <_start-0x1bfbf8cc>
 16c:	19429718 	pcaddi	$r24,-387912(0xa14b8)
 170:	Address 0x0000000000000170 is out of bounds.


Disassembly of section .debug_line:

00000000 <.debug_line>:
   0:	00000d76 	0x00000d76
   4:	001e0004 	mulh.d	$r4,$r0,$r0
   8:	01010000 	fadd.d	$f0,$f0,$f0
   c:	0df2f601 	0x0df2f601
  10:	01010100 	fadd.d	$f0,$f8,$f0
  14:	00000001 	0x00000001
  18:	01000001 	0x01000001
  1c:	69616d00 	bltu	$r8,$r0,90476(0x1616c) # 16188 <_start-0x1bfe9ebc>
  20:	00632e6e 	bstrins.w	$r14,$r19,0x3,0xb
  24:	00000000 	0x00000000
  28:	d4020500 	0xd4020500
  2c:	1f000100 	pcaddu18i	$r0,-524280(0x80008)
  30:	05000105 	0x05000105
  34:	0100e002 	fadd.s	$f2,$f0,$f24
  38:	06051800 	cacop	0x0,$r0,326(0x146)
  3c:	e4020500 	0xe4020500
  40:	18000100 	pcaddi	$r0,8(0x8)
  44:	05000605 	0x05000605
  48:	0100e802 	fadd.s	$f2,$f0,$f26
  4c:	06051800 	cacop	0x0,$r0,326(0x146)
  50:	ec020500 	0xec020500
  54:	19000100 	pcaddi	$r0,-524280(0x80008)
  58:	05000905 	0x05000905
  5c:	0100f002 	fadd.s	$f2,$f0,$f28
  60:	02050100 	slti	$r0,$r8,320(0x140)
  64:	f4020500 	0xf4020500
  68:	19000100 	pcaddi	$r0,-524280(0x80008)
  6c:	05000a05 	0x05000a05
  70:	0100f802 	fadd.s	$f2,$f0,$f30
  74:	03050100 	lu52i.d	$r0,$r8,320(0x140)
  78:	fc020500 	0xfc020500
  7c:	00000100 	0x00000100
  80:	19030402 	pcaddi	$r2,-518112(0x81820)
  84:	05000605 	0x05000605
  88:	01010c02 	fadd.d	$f2,$f0,$f3
  8c:	18051500 	pcaddi	$r0,10408(0x28a8)
  90:	18020500 	pcaddi	$r0,4136(0x1028)
  94:	00000101 	0x00000101
  98:	01010402 	fadd.d	$f2,$f0,$f1
  9c:	05000305 	0x05000305
  a0:	01012402 	fadd.d	$f2,$f0,$f9
  a4:	04020000 	csrrd	$r0,0x80
  a8:	1b051502 	pcalau12i	$r2,-513880(0x828a8)
  ac:	30020500 	0x30020500
  b0:	00000101 	0x00000101
  b4:	01010402 	fadd.d	$f2,$f0,$f1
  b8:	05000205 	0x05000205
  bc:	01014002 	fadd.d	$f2,$f0,$f16
  c0:	04020000 	csrrd	$r0,0x80
  c4:	01051e00 	fmul.d	$f0,$f16,$f7
  c8:	50020500 	b	67109380(0x4000204) # 40002cc <_start-0x17fffd78>
  cc:	1a000101 	pcalau12i	$r1,8(0x8)
  d0:	05000105 	0x05000105
  d4:	01015c02 	fadd.d	$f2,$f0,$f23
  d8:	06051800 	cacop	0x0,$r0,326(0x146)
  dc:	60020500 	blt	$r8,$r0,516(0x204) # 2e0 <_start-0x1bfffd64>
  e0:	18000101 	pcaddi	$r1,8(0x8)
  e4:	05000605 	0x05000605
  e8:	01016402 	fadd.d	$f2,$f0,$f25
  ec:	06051800 	cacop	0x0,$r0,326(0x146)
  f0:	68020500 	bltu	$r8,$r0,516(0x204) # 2f4 <_start-0x1bfffd50>
  f4:	19000101 	pcaddi	$r1,-524280(0x80008)
  f8:	05000905 	0x05000905
  fc:	01016c02 	fadd.d	$f2,$f0,$f27
 100:	02050100 	slti	$r0,$r8,320(0x140)
 104:	70020500 	vsle.b	$vr0,$vr8,$vr1
 108:	00000101 	0x00000101
 10c:	19030402 	pcaddi	$r2,-518112(0x81820)
 110:	05000505 	0x05000505
 114:	01018002 	0x01018002
 118:	1b051500 	pcalau12i	$r0,-513880(0x828a8)
 11c:	8c020500 	0x8c020500
 120:	00000101 	0x00000101
 124:	01010402 	fadd.d	$f2,$f0,$f1
 128:	05000205 	0x05000205
 12c:	01019c02 	0x01019c02
 130:	04020000 	csrrd	$r0,0x80
 134:	01051b00 	fmul.d	$f0,$f24,$f6
 138:	ac020500 	0xac020500
 13c:	1a000101 	pcalau12i	$r1,8(0x8)
 140:	05000105 	0x05000105
 144:	0101bc02 	0x0101bc02
 148:	02051900 	slti	$r0,$r8,326(0x146)
 14c:	c0020500 	0xc0020500
 150:	18000101 	pcaddi	$r1,8(0x8)
 154:	05000205 	0x05000205
 158:	0101c802 	0x0101c802
 15c:	11050100 	addu16i.d	$r0,$r8,16704(0x4140)
 160:	d4020500 	0xd4020500
 164:	19000101 	pcaddi	$r1,-524280(0x80008)
 168:	05000205 	0x05000205
 16c:	0101d802 	0x0101d802
 170:	02051800 	slti	$r0,$r0,326(0x146)
 174:	e0020500 	0xe0020500
 178:	01000101 	0x01000101
 17c:	05001105 	0x05001105
 180:	0101ec02 	0x0101ec02
 184:	02051900 	slti	$r0,$r8,326(0x146)
 188:	f0020500 	0xf0020500
 18c:	18000101 	pcaddi	$r1,8(0x8)
 190:	05000205 	0x05000205
 194:	0101f802 	0x0101f802
 198:	11050100 	addu16i.d	$r0,$r8,16704(0x4140)
 19c:	04020500 	csrxchg	$r0,$r8,0x81
 1a0:	19000102 	pcaddi	$r2,-524280(0x80008)
 1a4:	05000205 	0x05000205
 1a8:	01020802 	0x01020802
 1ac:	02051800 	slti	$r0,$r0,326(0x146)
 1b0:	10020500 	addu16i.d	$r0,$r8,129(0x81)
 1b4:	01000102 	0x01000102
 1b8:	05001105 	0x05001105
 1bc:	01021c02 	0x01021c02
 1c0:	02051900 	slti	$r0,$r8,326(0x146)
 1c4:	20020500 	ll.w	$r0,$r8,516(0x204)
 1c8:	18000102 	pcaddi	$r2,8(0x8)
 1cc:	05000205 	0x05000205
 1d0:	01022802 	0x01022802
 1d4:	11050100 	addu16i.d	$r0,$r8,16704(0x4140)
 1d8:	34020500 	0x34020500
 1dc:	19000102 	pcaddi	$r2,-524280(0x80008)
 1e0:	05000205 	0x05000205
 1e4:	01023802 	0x01023802
 1e8:	02051800 	slti	$r0,$r0,326(0x146)
 1ec:	40020500 	beqz	$r8,516(0x204) # 3f0 <_start-0x1bfffc54>
 1f0:	01000102 	0x01000102
 1f4:	05001105 	0x05001105
 1f8:	01024c02 	0x01024c02
 1fc:	02051900 	slti	$r0,$r8,326(0x146)
 200:	50020500 	b	67109380(0x4000204) # 4000404 <_start-0x17fffc40>
 204:	18000102 	pcaddi	$r2,8(0x8)
 208:	05000205 	0x05000205
 20c:	01025802 	0x01025802
 210:	11050100 	addu16i.d	$r0,$r8,16704(0x4140)
 214:	64020500 	bge	$r8,$r0,516(0x204) # 418 <_start-0x1bfffc2c>
 218:	1a000102 	pcalau12i	$r2,8(0x8)
 21c:	05000205 	0x05000205
 220:	01026802 	0x01026802
 224:	02051800 	slti	$r0,$r0,326(0x146)
 228:	70020500 	vsle.b	$vr0,$vr8,$vr1
 22c:	01000102 	0x01000102
 230:	05001105 	0x05001105
 234:	01027c02 	0x01027c02
 238:	02051900 	slti	$r0,$r8,326(0x146)
 23c:	80020500 	0x80020500
 240:	18000102 	pcaddi	$r2,8(0x8)
 244:	05000205 	0x05000205
 248:	01028802 	fsub.s	$f2,$f0,$f2
 24c:	11050100 	addu16i.d	$r0,$r8,16704(0x4140)
 250:	94020500 	0x94020500
 254:	19000102 	pcaddi	$r2,-524280(0x80008)
 258:	05000205 	0x05000205
 25c:	01029802 	fsub.s	$f2,$f0,$f6
 260:	02051800 	slti	$r0,$r0,326(0x146)
 264:	a0020500 	0xa0020500
 268:	01000102 	0x01000102
 26c:	05001105 	0x05001105
 270:	0102ac02 	fsub.s	$f2,$f0,$f11
 274:	02051900 	slti	$r0,$r8,326(0x146)
 278:	b0020500 	0xb0020500
 27c:	18000102 	pcaddi	$r2,8(0x8)
 280:	05000205 	0x05000205
 284:	0102b802 	fsub.s	$f2,$f0,$f14
 288:	11050100 	addu16i.d	$r0,$r8,16704(0x4140)
 28c:	c4020500 	0xc4020500
 290:	19000102 	pcaddi	$r2,-524280(0x80008)
 294:	05000205 	0x05000205
 298:	0102c802 	fsub.s	$f2,$f0,$f18
 29c:	02051800 	slti	$r0,$r0,326(0x146)
 2a0:	d0020500 	0xd0020500
 2a4:	01000102 	0x01000102
 2a8:	05001105 	0x05001105
 2ac:	0102dc02 	fsub.s	$f2,$f0,$f23
 2b0:	02051900 	slti	$r0,$r8,326(0x146)
 2b4:	e0020500 	0xe0020500
 2b8:	18000102 	pcaddi	$r2,8(0x8)
 2bc:	05000205 	0x05000205
 2c0:	0102e802 	fsub.s	$f2,$f0,$f26
 2c4:	11050100 	addu16i.d	$r0,$r8,16704(0x4140)
 2c8:	f4020500 	0xf4020500
 2cc:	19000102 	pcaddi	$r2,-524280(0x80008)
 2d0:	05000205 	0x05000205
 2d4:	0102f802 	fsub.s	$f2,$f0,$f30
 2d8:	02051800 	slti	$r0,$r0,326(0x146)
 2dc:	00020500 	0x00020500
 2e0:	01000103 	0x01000103
 2e4:	05001105 	0x05001105
 2e8:	01030c02 	fsub.d	$f2,$f0,$f3
 2ec:	01051800 	fmul.d	$f0,$f0,$f6
 2f0:	20020500 	ll.w	$r0,$r8,516(0x204)
 2f4:	1e000103 	pcaddu18i	$r3,8(0x8)
 2f8:	05000105 	0x05000105
 2fc:	01033802 	fsub.d	$f2,$f0,$f14
 300:	2c051900 	vld	$vr0,$r8,326(0x146)
 304:	48020500 	bcnez	$fcc0,516(0x204) # 508 <_start-0x1bfffb3c>
 308:	18000103 	pcaddi	$r3,8(0x8)
 30c:	05000c05 	0x05000c05
 310:	01035002 	fsub.d	$f2,$f0,$f20
 314:	2c050100 	vld	$vr0,$r8,320(0x140)
 318:	5c020500 	bne	$r8,$r0,516(0x204) # 51c <_start-0x1bfffb28>
 31c:	18000103 	pcaddi	$r3,8(0x8)
 320:	05000c05 	0x05000c05
 324:	01036402 	fsub.d	$f2,$f0,$f25
 328:	2c050100 	vld	$vr0,$r8,320(0x140)
 32c:	70020500 	vsle.b	$vr0,$vr8,$vr1
 330:	18000103 	pcaddi	$r3,8(0x8)
 334:	05000c05 	0x05000c05
 338:	01037802 	fsub.d	$f2,$f0,$f30
 33c:	2c050100 	vld	$vr0,$r8,320(0x140)
 340:	84020500 	0x84020500
 344:	18000103 	pcaddi	$r3,8(0x8)
 348:	05000c05 	0x05000c05
 34c:	01038c02 	0x01038c02
 350:	2c050100 	vld	$vr0,$r8,320(0x140)
 354:	98020500 	0x98020500
 358:	18000103 	pcaddi	$r3,8(0x8)
 35c:	05000c05 	0x05000c05
 360:	0103a002 	0x0103a002
 364:	2c050100 	vld	$vr0,$r8,320(0x140)
 368:	ac020500 	0xac020500
 36c:	1a000103 	pcalau12i	$r3,8(0x8)
 370:	05000c05 	0x05000c05
 374:	0103b402 	0x0103b402
 378:	2c050100 	vld	$vr0,$r8,320(0x140)
 37c:	c0020500 	0xc0020500
 380:	18000103 	pcaddi	$r3,8(0x8)
 384:	05000c05 	0x05000c05
 388:	0103c802 	0x0103c802
 38c:	2c050100 	vld	$vr0,$r8,320(0x140)
 390:	d4020500 	0xd4020500
 394:	18000103 	pcaddi	$r3,8(0x8)
 398:	05000c05 	0x05000c05
 39c:	0103dc02 	0x0103dc02
 3a0:	2c050100 	vld	$vr0,$r8,320(0x140)
 3a4:	e8020500 	0xe8020500
 3a8:	18000103 	pcaddi	$r3,8(0x8)
 3ac:	05000c05 	0x05000c05
 3b0:	0103f002 	0x0103f002
 3b4:	2c050100 	vld	$vr0,$r8,320(0x140)
 3b8:	fc020500 	0xfc020500
 3bc:	18000103 	pcaddi	$r3,8(0x8)
 3c0:	05000c05 	0x05000c05
 3c4:	01040402 	0x01040402
 3c8:	2c050100 	vld	$vr0,$r8,320(0x140)
 3cc:	10020500 	addu16i.d	$r0,$r8,129(0x81)
 3d0:	18000104 	pcaddi	$r4,8(0x8)
 3d4:	05000c05 	0x05000c05
 3d8:	01041802 	0x01041802
 3dc:	2c050100 	vld	$vr0,$r8,320(0x140)
 3e0:	24020500 	ldptr.w	$r0,$r8,516(0x204)
 3e4:	1a000104 	pcalau12i	$r4,8(0x8)
 3e8:	05000c05 	0x05000c05
 3ec:	01042c02 	0x01042c02
 3f0:	2c050100 	vld	$vr0,$r8,320(0x140)
 3f4:	38020500 	0x38020500
 3f8:	18000104 	pcaddi	$r4,8(0x8)
 3fc:	05000c05 	0x05000c05
 400:	01044002 	0x01044002
 404:	2c050100 	vld	$vr0,$r8,320(0x140)
 408:	4c020500 	jirl	$r0,$r8,516(0x204)
 40c:	18000104 	pcaddi	$r4,8(0x8)
 410:	05000c05 	0x05000c05
 414:	01045402 	0x01045402
 418:	2c050100 	vld	$vr0,$r8,320(0x140)
 41c:	60020500 	blt	$r8,$r0,516(0x204) # 620 <_start-0x1bfffa24>
 420:	18000104 	pcaddi	$r4,8(0x8)
 424:	05000c05 	0x05000c05
 428:	01046802 	0x01046802
 42c:	2c050100 	vld	$vr0,$r8,320(0x140)
 430:	74020500 	xvsle.b	$xr0,$xr8,$xr1
 434:	18000104 	pcaddi	$r4,8(0x8)
 438:	05000c05 	0x05000c05
 43c:	01047c02 	0x01047c02
 440:	2c050100 	vld	$vr0,$r8,320(0x140)
 444:	88020500 	0x88020500
 448:	18000104 	pcaddi	$r4,8(0x8)
 44c:	05000c05 	0x05000c05
 450:	01049002 	fmul.s	$f2,$f0,$f4
 454:	2c050100 	vld	$vr0,$r8,320(0x140)
 458:	9c020500 	0x9c020500
 45c:	1b000104 	pcalau12i	$r4,-524280(0x80008)
 460:	05000c05 	0x05000c05
 464:	0104a402 	fmul.s	$f2,$f0,$f9
 468:	2c050100 	vld	$vr0,$r8,320(0x140)
 46c:	b0020500 	0xb0020500
 470:	18000104 	pcaddi	$r4,8(0x8)
 474:	05000c05 	0x05000c05
 478:	0104b802 	fmul.s	$f2,$f0,$f14
 47c:	2c050100 	vld	$vr0,$r8,320(0x140)
 480:	c4020500 	0xc4020500
 484:	18000104 	pcaddi	$r4,8(0x8)
 488:	05000c05 	0x05000c05
 48c:	0104cc02 	fmul.s	$f2,$f0,$f19
 490:	2c050100 	vld	$vr0,$r8,320(0x140)
 494:	d8020500 	0xd8020500
 498:	18000104 	pcaddi	$r4,8(0x8)
 49c:	05000c05 	0x05000c05
 4a0:	0104e002 	fmul.s	$f2,$f0,$f24
 4a4:	2c050100 	vld	$vr0,$r8,320(0x140)
 4a8:	ec020500 	0xec020500
 4ac:	18000104 	pcaddi	$r4,8(0x8)
 4b0:	05000c05 	0x05000c05
 4b4:	0104f402 	fmul.s	$f2,$f0,$f29
 4b8:	2c050100 	vld	$vr0,$r8,320(0x140)
 4bc:	00020500 	0x00020500
 4c0:	18000105 	pcaddi	$r5,8(0x8)
 4c4:	05000c05 	0x05000c05
 4c8:	01050802 	fmul.d	$f2,$f0,$f2
 4cc:	2c050100 	vld	$vr0,$r8,320(0x140)
 4d0:	14020500 	lu12i.w	$r0,4136(0x1028)
 4d4:	1a000105 	pcalau12i	$r5,8(0x8)
 4d8:	05000c05 	0x05000c05
 4dc:	01051c02 	fmul.d	$f2,$f0,$f7
 4e0:	2c050100 	vld	$vr0,$r8,320(0x140)
 4e4:	28020500 	ld.b	$r0,$r8,129(0x81)
 4e8:	18000105 	pcaddi	$r5,8(0x8)
 4ec:	05000c05 	0x05000c05
 4f0:	01053002 	fmul.d	$f2,$f0,$f12
 4f4:	2c050100 	vld	$vr0,$r8,320(0x140)
 4f8:	3c020500 	0x3c020500
 4fc:	18000105 	pcaddi	$r5,8(0x8)
 500:	05000c05 	0x05000c05
 504:	01054402 	fmul.d	$f2,$f0,$f17
 508:	2c050100 	vld	$vr0,$r8,320(0x140)
 50c:	50020500 	b	67109380(0x4000204) # 4000710 <_start-0x17fff934>
 510:	18000105 	pcaddi	$r5,8(0x8)
 514:	05000c05 	0x05000c05
 518:	01055802 	fmul.d	$f2,$f0,$f22
 51c:	2c050100 	vld	$vr0,$r8,320(0x140)
 520:	64020500 	bge	$r8,$r0,516(0x204) # 724 <_start-0x1bfff920>
 524:	18000105 	pcaddi	$r5,8(0x8)
 528:	05000c05 	0x05000c05
 52c:	01056c02 	fmul.d	$f2,$f0,$f27
 530:	2c050100 	vld	$vr0,$r8,320(0x140)
 534:	78020500 	0x78020500
 538:	18000105 	pcaddi	$r5,8(0x8)
 53c:	05000c05 	0x05000c05
 540:	01058002 	0x01058002
 544:	2c050100 	vld	$vr0,$r8,320(0x140)
 548:	8c020500 	0x8c020500
 54c:	1a000105 	pcalau12i	$r5,8(0x8)
 550:	05000c05 	0x05000c05
 554:	01059402 	0x01059402
 558:	2c050100 	vld	$vr0,$r8,320(0x140)
 55c:	a0020500 	0xa0020500
 560:	18000105 	pcaddi	$r5,8(0x8)
 564:	05000c05 	0x05000c05
 568:	0105a802 	0x0105a802
 56c:	2c050100 	vld	$vr0,$r8,320(0x140)
 570:	b4020500 	0xb4020500
 574:	18000105 	pcaddi	$r5,8(0x8)
 578:	05000c05 	0x05000c05
 57c:	0105bc02 	0x0105bc02
 580:	2c050100 	vld	$vr0,$r8,320(0x140)
 584:	c8020500 	0xc8020500
 588:	18000105 	pcaddi	$r5,8(0x8)
 58c:	05000c05 	0x05000c05
 590:	0105d002 	0x0105d002
 594:	2c050100 	vld	$vr0,$r8,320(0x140)
 598:	dc020500 	0xdc020500
 59c:	18000105 	pcaddi	$r5,8(0x8)
 5a0:	05000c05 	0x05000c05
 5a4:	0105e402 	0x0105e402
 5a8:	2c050100 	vld	$vr0,$r8,320(0x140)
 5ac:	f0020500 	0xf0020500
 5b0:	18000105 	pcaddi	$r5,8(0x8)
 5b4:	05000c05 	0x05000c05
 5b8:	0105f802 	0x0105f802
 5bc:	2c050100 	vld	$vr0,$r8,320(0x140)
 5c0:	04020500 	csrxchg	$r0,$r8,0x81
 5c4:	1a000106 	pcalau12i	$r6,8(0x8)
 5c8:	05000c05 	0x05000c05
 5cc:	01060c02 	0x01060c02
 5d0:	2c050100 	vld	$vr0,$r8,320(0x140)
 5d4:	18020500 	pcaddi	$r0,4136(0x1028)
 5d8:	18000106 	pcaddi	$r6,8(0x8)
 5dc:	05000c05 	0x05000c05
 5e0:	01062002 	0x01062002
 5e4:	2c050100 	vld	$vr0,$r8,320(0x140)
 5e8:	2c020500 	vld	$vr0,$r8,129(0x81)
 5ec:	18000106 	pcaddi	$r6,8(0x8)
 5f0:	05000c05 	0x05000c05
 5f4:	01063402 	0x01063402
 5f8:	2c050100 	vld	$vr0,$r8,320(0x140)
 5fc:	40020500 	beqz	$r8,516(0x204) # 800 <_start-0x1bfff844>
 600:	18000106 	pcaddi	$r6,8(0x8)
 604:	05000c05 	0x05000c05
 608:	01064802 	0x01064802
 60c:	2c050100 	vld	$vr0,$r8,320(0x140)
 610:	54020500 	bl	67109380(0x4000204) # 4000814 <_start-0x17fff830>
 614:	18000106 	pcaddi	$r6,8(0x8)
 618:	05000c05 	0x05000c05
 61c:	01065c02 	0x01065c02
 620:	2c050100 	vld	$vr0,$r8,320(0x140)
 624:	68020500 	bltu	$r8,$r0,516(0x204) # 828 <_start-0x1bfff81c>
 628:	18000106 	pcaddi	$r6,8(0x8)
 62c:	05000c05 	0x05000c05
 630:	01067002 	0x01067002
 634:	2c050100 	vld	$vr0,$r8,320(0x140)
 638:	7c020500 	0x7c020500
 63c:	1a000106 	pcalau12i	$r6,8(0x8)
 640:	05000c05 	0x05000c05
 644:	01068402 	fdiv.s	$f2,$f0,$f1
 648:	2c050100 	vld	$vr0,$r8,320(0x140)
 64c:	90020500 	0x90020500
 650:	18000106 	pcaddi	$r6,8(0x8)
 654:	05000c05 	0x05000c05
 658:	01069802 	fdiv.s	$f2,$f0,$f6
 65c:	2c050100 	vld	$vr0,$r8,320(0x140)
 660:	a4020500 	0xa4020500
 664:	18000106 	pcaddi	$r6,8(0x8)
 668:	05000c05 	0x05000c05
 66c:	0106ac02 	fdiv.s	$f2,$f0,$f11
 670:	2c050100 	vld	$vr0,$r8,320(0x140)
 674:	b8020500 	0xb8020500
 678:	18000106 	pcaddi	$r6,8(0x8)
 67c:	05000c05 	0x05000c05
 680:	0106c002 	fdiv.s	$f2,$f0,$f16
 684:	2c050100 	vld	$vr0,$r8,320(0x140)
 688:	cc020500 	0xcc020500
 68c:	18000106 	pcaddi	$r6,8(0x8)
 690:	05000c05 	0x05000c05
 694:	0106d402 	fdiv.s	$f2,$f0,$f21
 698:	2c050100 	vld	$vr0,$r8,320(0x140)
 69c:	e0020500 	0xe0020500
 6a0:	18000106 	pcaddi	$r6,8(0x8)
 6a4:	05000c05 	0x05000c05
 6a8:	0106e802 	fdiv.s	$f2,$f0,$f26
 6ac:	2c050100 	vld	$vr0,$r8,320(0x140)
 6b0:	f4020500 	0xf4020500
 6b4:	1a000106 	pcalau12i	$r6,8(0x8)
 6b8:	05000c05 	0x05000c05
 6bc:	0106fc02 	fdiv.s	$f2,$f0,$f31
 6c0:	2c050100 	vld	$vr0,$r8,320(0x140)
 6c4:	08020500 	0x08020500
 6c8:	18000107 	pcaddi	$r7,8(0x8)
 6cc:	05000c05 	0x05000c05
 6d0:	01071002 	fdiv.d	$f2,$f0,$f4
 6d4:	2c050100 	vld	$vr0,$r8,320(0x140)
 6d8:	1c020500 	pcaddu12i	$r0,4136(0x1028)
 6dc:	18000107 	pcaddi	$r7,8(0x8)
 6e0:	05000c05 	0x05000c05
 6e4:	01072402 	fdiv.d	$f2,$f0,$f9
 6e8:	2c050100 	vld	$vr0,$r8,320(0x140)
 6ec:	30020500 	0x30020500
 6f0:	18000107 	pcaddi	$r7,8(0x8)
 6f4:	05000c05 	0x05000c05
 6f8:	01073802 	fdiv.d	$f2,$f0,$f14
 6fc:	2c050100 	vld	$vr0,$r8,320(0x140)
 700:	44020500 	bnez	$r8,516(0x204) # 904 <_start-0x1bfff740>
 704:	18000107 	pcaddi	$r7,8(0x8)
 708:	05000c05 	0x05000c05
 70c:	01074c02 	fdiv.d	$f2,$f0,$f19
 710:	2c050100 	vld	$vr0,$r8,320(0x140)
 714:	58020500 	beq	$r8,$r0,516(0x204) # 918 <_start-0x1bfff72c>
 718:	18000107 	pcaddi	$r7,8(0x8)
 71c:	05000c05 	0x05000c05
 720:	01076002 	fdiv.d	$f2,$f0,$f24
 724:	2c050100 	vld	$vr0,$r8,320(0x140)
 728:	6c020500 	bgeu	$r8,$r0,516(0x204) # 92c <_start-0x1bfff718>
 72c:	1a000107 	pcalau12i	$r7,8(0x8)
 730:	05000c05 	0x05000c05
 734:	01077402 	fdiv.d	$f2,$f0,$f29
 738:	2c050100 	vld	$vr0,$r8,320(0x140)
 73c:	80020500 	0x80020500
 740:	18000107 	pcaddi	$r7,8(0x8)
 744:	05000c05 	0x05000c05
 748:	01078802 	0x01078802
 74c:	2c050100 	vld	$vr0,$r8,320(0x140)
 750:	94020500 	0x94020500
 754:	18000107 	pcaddi	$r7,8(0x8)
 758:	05000c05 	0x05000c05
 75c:	01079c02 	0x01079c02
 760:	2c050100 	vld	$vr0,$r8,320(0x140)
 764:	a8020500 	0xa8020500
 768:	18000107 	pcaddi	$r7,8(0x8)
 76c:	05000c05 	0x05000c05
 770:	0107b002 	0x0107b002
 774:	2c050100 	vld	$vr0,$r8,320(0x140)
 778:	bc020500 	0xbc020500
 77c:	18000107 	pcaddi	$r7,8(0x8)
 780:	05000c05 	0x05000c05
 784:	0107c402 	0x0107c402
 788:	2c050100 	vld	$vr0,$r8,320(0x140)
 78c:	d0020500 	0xd0020500
 790:	18000107 	pcaddi	$r7,8(0x8)
 794:	05000c05 	0x05000c05
 798:	0107d802 	0x0107d802
 79c:	2c050100 	vld	$vr0,$r8,320(0x140)
 7a0:	e4020500 	0xe4020500
 7a4:	1a000107 	pcalau12i	$r7,8(0x8)
 7a8:	05000c05 	0x05000c05
 7ac:	0107ec02 	0x0107ec02
 7b0:	2c050100 	vld	$vr0,$r8,320(0x140)
 7b4:	f8020500 	0xf8020500
 7b8:	18000107 	pcaddi	$r7,8(0x8)
 7bc:	05000c05 	0x05000c05
 7c0:	01080002 	0x01080002
 7c4:	2c050100 	vld	$vr0,$r8,320(0x140)
 7c8:	0c020500 	0x0c020500
 7cc:	18000108 	pcaddi	$r8,8(0x8)
 7d0:	05000c05 	0x05000c05
 7d4:	01081402 	0x01081402
 7d8:	2c050100 	vld	$vr0,$r8,320(0x140)
 7dc:	20020500 	ll.w	$r0,$r8,516(0x204)
 7e0:	18000108 	pcaddi	$r8,8(0x8)
 7e4:	05000c05 	0x05000c05
 7e8:	01082802 	0x01082802
 7ec:	2c050100 	vld	$vr0,$r8,320(0x140)
 7f0:	34020500 	0x34020500
 7f4:	18000108 	pcaddi	$r8,8(0x8)
 7f8:	05000c05 	0x05000c05
 7fc:	01083c02 	0x01083c02
 800:	2c050100 	vld	$vr0,$r8,320(0x140)
 804:	48020500 	bcnez	$fcc0,516(0x204) # a08 <_start-0x1bfff63c>
 808:	18000108 	pcaddi	$r8,8(0x8)
 80c:	05000c05 	0x05000c05
 810:	01085002 	0x01085002
 814:	2c050100 	vld	$vr0,$r8,320(0x140)
 818:	5c020500 	bne	$r8,$r0,516(0x204) # a1c <_start-0x1bfff628>
 81c:	1a000108 	pcalau12i	$r8,8(0x8)
 820:	05000c05 	0x05000c05
 824:	01086402 	0x01086402
 828:	2c050100 	vld	$vr0,$r8,320(0x140)
 82c:	70020500 	vsle.b	$vr0,$vr8,$vr1
 830:	18000108 	pcaddi	$r8,8(0x8)
 834:	05000c05 	0x05000c05
 838:	01087802 	0x01087802
 83c:	2c050100 	vld	$vr0,$r8,320(0x140)
 840:	84020500 	0x84020500
 844:	18000108 	pcaddi	$r8,8(0x8)
 848:	05000c05 	0x05000c05
 84c:	01088c02 	fmax.s	$f2,$f0,$f3
 850:	2c050100 	vld	$vr0,$r8,320(0x140)
 854:	98020500 	0x98020500
 858:	18000108 	pcaddi	$r8,8(0x8)
 85c:	05000c05 	0x05000c05
 860:	0108a002 	fmax.s	$f2,$f0,$f8
 864:	2c050100 	vld	$vr0,$r8,320(0x140)
 868:	ac020500 	0xac020500
 86c:	18000108 	pcaddi	$r8,8(0x8)
 870:	05000c05 	0x05000c05
 874:	0108b402 	fmax.s	$f2,$f0,$f13
 878:	2c050100 	vld	$vr0,$r8,320(0x140)
 87c:	c0020500 	0xc0020500
 880:	18000108 	pcaddi	$r8,8(0x8)
 884:	05000c05 	0x05000c05
 888:	0108c802 	fmax.s	$f2,$f0,$f18
 88c:	2c050100 	vld	$vr0,$r8,320(0x140)
 890:	d4020500 	0xd4020500
 894:	1a000108 	pcalau12i	$r8,8(0x8)
 898:	05000c05 	0x05000c05
 89c:	0108dc02 	fmax.s	$f2,$f0,$f23
 8a0:	2c050100 	vld	$vr0,$r8,320(0x140)
 8a4:	e8020500 	0xe8020500
 8a8:	18000108 	pcaddi	$r8,8(0x8)
 8ac:	05000c05 	0x05000c05
 8b0:	0108f002 	fmax.s	$f2,$f0,$f28
 8b4:	2c050100 	vld	$vr0,$r8,320(0x140)
 8b8:	fc020500 	0xfc020500
 8bc:	18000108 	pcaddi	$r8,8(0x8)
 8c0:	05000c05 	0x05000c05
 8c4:	01090402 	fmax.d	$f2,$f0,$f1
 8c8:	2c050100 	vld	$vr0,$r8,320(0x140)
 8cc:	10020500 	addu16i.d	$r0,$r8,129(0x81)
 8d0:	18000109 	pcaddi	$r9,8(0x8)
 8d4:	05000c05 	0x05000c05
 8d8:	01091802 	fmax.d	$f2,$f0,$f6
 8dc:	2c050100 	vld	$vr0,$r8,320(0x140)
 8e0:	24020500 	ldptr.w	$r0,$r8,516(0x204)
 8e4:	18000109 	pcaddi	$r9,8(0x8)
 8e8:	05000c05 	0x05000c05
 8ec:	01092c02 	fmax.d	$f2,$f0,$f11
 8f0:	2c050100 	vld	$vr0,$r8,320(0x140)
 8f4:	38020500 	0x38020500
 8f8:	18000109 	pcaddi	$r9,8(0x8)
 8fc:	05000c05 	0x05000c05
 900:	01094002 	fmax.d	$f2,$f0,$f16
 904:	2c050100 	vld	$vr0,$r8,320(0x140)
 908:	4c020500 	jirl	$r0,$r8,516(0x204)
 90c:	1b000109 	pcalau12i	$r9,-524280(0x80008)
 910:	05000c05 	0x05000c05
 914:	01095402 	fmax.d	$f2,$f0,$f21
 918:	2c050100 	vld	$vr0,$r8,320(0x140)
 91c:	60020500 	blt	$r8,$r0,516(0x204) # b20 <_start-0x1bfff524>
 920:	18000109 	pcaddi	$r9,8(0x8)
 924:	05000c05 	0x05000c05
 928:	01096802 	fmax.d	$f2,$f0,$f26
 92c:	2c050100 	vld	$vr0,$r8,320(0x140)
 930:	74020500 	xvsle.b	$xr0,$xr8,$xr1
 934:	18000109 	pcaddi	$r9,8(0x8)
 938:	05000c05 	0x05000c05
 93c:	01097c02 	fmax.d	$f2,$f0,$f31
 940:	2c050100 	vld	$vr0,$r8,320(0x140)
 944:	88020500 	0x88020500
 948:	18000109 	pcaddi	$r9,8(0x8)
 94c:	05000c05 	0x05000c05
 950:	01099002 	0x01099002
 954:	2c050100 	vld	$vr0,$r8,320(0x140)
 958:	9c020500 	0x9c020500
 95c:	18000109 	pcaddi	$r9,8(0x8)
 960:	05000c05 	0x05000c05
 964:	0109a402 	0x0109a402
 968:	2c050100 	vld	$vr0,$r8,320(0x140)
 96c:	b0020500 	0xb0020500
 970:	18000109 	pcaddi	$r9,8(0x8)
 974:	05000c05 	0x05000c05
 978:	0109b802 	0x0109b802
 97c:	2c050100 	vld	$vr0,$r8,320(0x140)
 980:	c4020500 	0xc4020500
 984:	1a000109 	pcalau12i	$r9,8(0x8)
 988:	05000c05 	0x05000c05
 98c:	0109cc02 	0x0109cc02
 990:	2c050100 	vld	$vr0,$r8,320(0x140)
 994:	d8020500 	0xd8020500
 998:	18000109 	pcaddi	$r9,8(0x8)
 99c:	05000c05 	0x05000c05
 9a0:	0109e002 	0x0109e002
 9a4:	2c050100 	vld	$vr0,$r8,320(0x140)
 9a8:	ec020500 	0xec020500
 9ac:	18000109 	pcaddi	$r9,8(0x8)
 9b0:	05000c05 	0x05000c05
 9b4:	0109f402 	0x0109f402
 9b8:	2c050100 	vld	$vr0,$r8,320(0x140)
 9bc:	00020500 	0x00020500
 9c0:	1800010a 	pcaddi	$r10,8(0x8)
 9c4:	05000c05 	0x05000c05
 9c8:	010a0802 	0x010a0802
 9cc:	2c050100 	vld	$vr0,$r8,320(0x140)
 9d0:	14020500 	lu12i.w	$r0,4136(0x1028)
 9d4:	1800010a 	pcaddi	$r10,8(0x8)
 9d8:	05000c05 	0x05000c05
 9dc:	010a1c02 	0x010a1c02
 9e0:	2c050100 	vld	$vr0,$r8,320(0x140)
 9e4:	28020500 	ld.b	$r0,$r8,129(0x81)
 9e8:	1800010a 	pcaddi	$r10,8(0x8)
 9ec:	05000c05 	0x05000c05
 9f0:	010a3002 	0x010a3002
 9f4:	2c050100 	vld	$vr0,$r8,320(0x140)
 9f8:	3c020500 	0x3c020500
 9fc:	1a00010a 	pcalau12i	$r10,8(0x8)
 a00:	05000c05 	0x05000c05
 a04:	010a4402 	0x010a4402
 a08:	2c050100 	vld	$vr0,$r8,320(0x140)
 a0c:	50020500 	b	67109380(0x4000204) # 4000c10 <_start-0x17fff434>
 a10:	1800010a 	pcaddi	$r10,8(0x8)
 a14:	05000c05 	0x05000c05
 a18:	010a5802 	0x010a5802
 a1c:	2c050100 	vld	$vr0,$r8,320(0x140)
 a20:	64020500 	bge	$r8,$r0,516(0x204) # c24 <_start-0x1bfff420>
 a24:	1800010a 	pcaddi	$r10,8(0x8)
 a28:	05000c05 	0x05000c05
 a2c:	010a6c02 	0x010a6c02
 a30:	2c050100 	vld	$vr0,$r8,320(0x140)
 a34:	78020500 	0x78020500
 a38:	1800010a 	pcaddi	$r10,8(0x8)
 a3c:	05000c05 	0x05000c05
 a40:	010a8002 	fmin.s	$f2,$f0,$f0
 a44:	2c050100 	vld	$vr0,$r8,320(0x140)
 a48:	8c020500 	0x8c020500
 a4c:	1800010a 	pcaddi	$r10,8(0x8)
 a50:	05000c05 	0x05000c05
 a54:	010a9402 	fmin.s	$f2,$f0,$f5
 a58:	2c050100 	vld	$vr0,$r8,320(0x140)
 a5c:	a0020500 	0xa0020500
 a60:	1800010a 	pcaddi	$r10,8(0x8)
 a64:	05000c05 	0x05000c05
 a68:	010aa802 	fmin.s	$f2,$f0,$f10
 a6c:	2c050100 	vld	$vr0,$r8,320(0x140)
 a70:	b4020500 	0xb4020500
 a74:	1a00010a 	pcalau12i	$r10,8(0x8)
 a78:	05000c05 	0x05000c05
 a7c:	010abc02 	fmin.s	$f2,$f0,$f15
 a80:	2c050100 	vld	$vr0,$r8,320(0x140)
 a84:	c8020500 	0xc8020500
 a88:	1800010a 	pcaddi	$r10,8(0x8)
 a8c:	05000c05 	0x05000c05
 a90:	010ad002 	fmin.s	$f2,$f0,$f20
 a94:	2c050100 	vld	$vr0,$r8,320(0x140)
 a98:	dc020500 	0xdc020500
 a9c:	1800010a 	pcaddi	$r10,8(0x8)
 aa0:	05000c05 	0x05000c05
 aa4:	010ae402 	fmin.s	$f2,$f0,$f25
 aa8:	2c050100 	vld	$vr0,$r8,320(0x140)
 aac:	f0020500 	0xf0020500
 ab0:	1800010a 	pcaddi	$r10,8(0x8)
 ab4:	05000c05 	0x05000c05
 ab8:	010af802 	fmin.s	$f2,$f0,$f30
 abc:	2c050100 	vld	$vr0,$r8,320(0x140)
 ac0:	04020500 	csrxchg	$r0,$r8,0x81
 ac4:	1800010b 	pcaddi	$r11,8(0x8)
 ac8:	05000c05 	0x05000c05
 acc:	010b0c02 	fmin.d	$f2,$f0,$f3
 ad0:	2c050100 	vld	$vr0,$r8,320(0x140)
 ad4:	18020500 	pcaddi	$r0,4136(0x1028)
 ad8:	1800010b 	pcaddi	$r11,8(0x8)
 adc:	05000c05 	0x05000c05
 ae0:	010b2002 	fmin.d	$f2,$f0,$f8
 ae4:	2c050100 	vld	$vr0,$r8,320(0x140)
 ae8:	2c020500 	vld	$vr0,$r8,129(0x81)
 aec:	1a00010b 	pcalau12i	$r11,8(0x8)
 af0:	05000c05 	0x05000c05
 af4:	010b3402 	fmin.d	$f2,$f0,$f13
 af8:	2c050100 	vld	$vr0,$r8,320(0x140)
 afc:	40020500 	beqz	$r8,516(0x204) # d00 <_start-0x1bfff344>
 b00:	1800010b 	pcaddi	$r11,8(0x8)
 b04:	05000c05 	0x05000c05
 b08:	010b4802 	fmin.d	$f2,$f0,$f18
 b0c:	2c050100 	vld	$vr0,$r8,320(0x140)
 b10:	54020500 	bl	67109380(0x4000204) # 4000d14 <_start-0x17fff330>
 b14:	1800010b 	pcaddi	$r11,8(0x8)
 b18:	05000c05 	0x05000c05
 b1c:	010b5c02 	fmin.d	$f2,$f0,$f23
 b20:	2c050100 	vld	$vr0,$r8,320(0x140)
 b24:	68020500 	bltu	$r8,$r0,516(0x204) # d28 <_start-0x1bfff31c>
 b28:	1800010b 	pcaddi	$r11,8(0x8)
 b2c:	05000c05 	0x05000c05
 b30:	010b7002 	fmin.d	$f2,$f0,$f28
 b34:	2c050100 	vld	$vr0,$r8,320(0x140)
 b38:	7c020500 	0x7c020500
 b3c:	1800010b 	pcaddi	$r11,8(0x8)
 b40:	05000c05 	0x05000c05
 b44:	010b8402 	0x010b8402
 b48:	2c050100 	vld	$vr0,$r8,320(0x140)
 b4c:	90020500 	0x90020500
 b50:	1800010b 	pcaddi	$r11,8(0x8)
 b54:	05000c05 	0x05000c05
 b58:	010b9802 	0x010b9802
 b5c:	2c050100 	vld	$vr0,$r8,320(0x140)
 b60:	a4020500 	0xa4020500
 b64:	1a00010b 	pcalau12i	$r11,8(0x8)
 b68:	05000c05 	0x05000c05
 b6c:	010bac02 	0x010bac02
 b70:	2c050100 	vld	$vr0,$r8,320(0x140)
 b74:	b8020500 	0xb8020500
 b78:	1800010b 	pcaddi	$r11,8(0x8)
 b7c:	05000c05 	0x05000c05
 b80:	010bc002 	0x010bc002
 b84:	2c050100 	vld	$vr0,$r8,320(0x140)
 b88:	cc020500 	0xcc020500
 b8c:	1800010b 	pcaddi	$r11,8(0x8)
 b90:	05000c05 	0x05000c05
 b94:	010bd402 	0x010bd402
 b98:	2c050100 	vld	$vr0,$r8,320(0x140)
 b9c:	e0020500 	0xe0020500
 ba0:	1800010b 	pcaddi	$r11,8(0x8)
 ba4:	05000c05 	0x05000c05
 ba8:	010be802 	0x010be802
 bac:	2c050100 	vld	$vr0,$r8,320(0x140)
 bb0:	f4020500 	0xf4020500
 bb4:	1800010b 	pcaddi	$r11,8(0x8)
 bb8:	05000c05 	0x05000c05
 bbc:	010bfc02 	0x010bfc02
 bc0:	2c050100 	vld	$vr0,$r8,320(0x140)
 bc4:	08020500 	0x08020500
 bc8:	1800010c 	pcaddi	$r12,8(0x8)
 bcc:	05000c05 	0x05000c05
 bd0:	010c1002 	0x010c1002
 bd4:	2c050100 	vld	$vr0,$r8,320(0x140)
 bd8:	1c020500 	pcaddu12i	$r0,4136(0x1028)
 bdc:	1800010c 	pcaddi	$r12,8(0x8)
 be0:	05000105 	0x05000105
 be4:	010c2c02 	0x010c2c02
 be8:	01056300 	fmul.d	$f0,$f24,$f24
 bec:	44020500 	bnez	$r8,516(0x204) # df0 <_start-0x1bfff254>
 bf0:	1800010c 	pcaddi	$r12,8(0x8)
 bf4:	05000605 	0x05000605
 bf8:	010c4802 	0x010c4802
 bfc:	09051900 	0x09051900
 c00:	4c020500 	jirl	$r0,$r8,516(0x204)
 c04:	0100010c 	0x0100010c
 c08:	05000205 	0x05000205
 c0c:	010c5002 	0x010c5002
 c10:	04020000 	csrrd	$r0,0x80
 c14:	0f051903 	0x0f051903
 c18:	60020500 	blt	$r8,$r0,516(0x204) # e1c <_start-0x1bfff228>
 c1c:	0100010c 	0x0100010c
 c20:	05000605 	0x05000605
 c24:	010c7002 	0x010c7002
 c28:	0f050100 	0x0f050100
 c2c:	74020500 	xvsle.b	$xr0,$xr8,$xr1
 c30:	0100010c 	0x0100010c
 c34:	05000a05 	0x05000a05
 c38:	010c7802 	0x010c7802
 c3c:	18051500 	pcaddi	$r0,10408(0x28a8)
 c40:	84020500 	0x84020500
 c44:	0000010c 	0x0000010c
 c48:	01010402 	fadd.d	$f2,$f0,$f1
 c4c:	05000205 	0x05000205
 c50:	010c9002 	fmaxa.s	$f2,$f0,$f4
 c54:	04020000 	csrrd	$r0,0x80
 c58:	01051b00 	fmul.d	$f0,$f24,$f6
 c5c:	a0020500 	0xa0020500
 c60:	1c00010c 	pcaddu12i	$r12,8(0x8)
 c64:	05000105 	0x05000105
 c68:	010cc802 	fmaxa.s	$f2,$f0,$f18
 c6c:	07051800 	0x07051800
 c70:	d0020500 	0xd0020500
 c74:	1800010c 	pcaddi	$r12,8(0x8)
 c78:	05001405 	0x05001405
 c7c:	010cd802 	fmaxa.s	$f2,$f0,$f22
 c80:	06050100 	cacop	0x0,$r8,320(0x140)
 c84:	dc020500 	0xdc020500
 c88:	1800010c 	pcaddi	$r12,8(0x8)
 c8c:	05002b05 	0x05002b05
 c90:	010ce802 	fmaxa.s	$f2,$f0,$f26
 c94:	4e050100 	jirl	$r0,$r8,-129792(0x20500)
 c98:	f8020500 	0xf8020500
 c9c:	0100010c 	0x0100010c
 ca0:	05000705 	0x05000705
 ca4:	010d0402 	fmaxa.d	$f2,$f0,$f1
 ca8:	06051900 	cacop	0x0,$r8,326(0x146)
 cac:	08020500 	0x08020500
 cb0:	1900010d 	pcaddi	$r13,-524280(0x80008)
 cb4:	05000905 	0x05000905
 cb8:	010d0c02 	fmaxa.d	$f2,$f0,$f3
 cbc:	02050100 	slti	$r0,$r8,320(0x140)
 cc0:	10020500 	addu16i.d	$r0,$r8,129(0x81)
 cc4:	0000010d 	0x0000010d
 cc8:	19030402 	pcaddi	$r2,-518112(0x81820)
 ccc:	05002605 	0x05002605
 cd0:	010d1c02 	fmaxa.d	$f2,$f0,$f7
 cd4:	08050100 	0x08050100
 cd8:	28020500 	ld.b	$r0,$r8,129(0x81)
 cdc:	1800010d 	pcaddi	$r13,8(0x8)
 ce0:	05002a05 	0x05002a05
 ce4:	010d3402 	fmaxa.d	$f2,$f0,$f13
 ce8:	1f050100 	pcaddu18i	$r0,-514040(0x82808)
 cec:	38020500 	0x38020500
 cf0:	0100010d 	0x0100010d
 cf4:	05000805 	0x05000805
 cf8:	010d4402 	fmaxa.d	$f2,$f0,$f17
 cfc:	03051a00 	lu52i.d	$r0,$r16,326(0x146)
 d00:	54020500 	bl	67109380(0x4000204) # 4000f04 <_start-0x17fff140>
 d04:	1100010d 	addu16i.d	$r13,$r8,16384(0x4000)
 d08:	05001805 	0x05001805
 d0c:	010d6002 	fmaxa.d	$f2,$f0,$f24
 d10:	04020000 	csrrd	$r0,0x80
 d14:	02050101 	slti	$r1,$r8,320(0x140)
 d18:	6c020500 	bgeu	$r8,$r0,516(0x204) # f1c <_start-0x1bfff128>
 d1c:	0000010d 	0x0000010d
 d20:	1f000402 	pcaddu18i	$r2,-524256(0x80020)
 d24:	05000105 	0x05000105
 d28:	010d8002 	0x010d8002
 d2c:	01051a00 	fmul.d	$f0,$f16,$f6
 d30:	90020500 	0x90020500
 d34:	0000010d 	0x0000010d
 d38:	1e010402 	pcaddu18i	$r2,2080(0x820)
 d3c:	05000305 	0x05000305
 d40:	010db002 	0x010db002
 d44:	03051800 	lu52i.d	$r0,$r0,326(0x146)
 d48:	b4020500 	0xb4020500
 d4c:	1900010d 	pcaddi	$r13,-524280(0x80008)
 d50:	05000305 	0x05000305
 d54:	010dd402 	0x010dd402
 d58:	03051900 	lu52i.d	$r0,$r8,326(0x146)
 d5c:	f4020500 	0xf4020500
 d60:	1800010d 	pcaddi	$r13,8(0x8)
 d64:	05000305 	0x05000305
 d68:	010df802 	0x010df802
 d6c:	03051100 	lu52i.d	$r0,$r8,324(0x144)
 d70:	fc020500 	0xfc020500
 d74:	0000010d 	0x0000010d
 d78:	Address 0x0000000000000d78 is out of bounds.


Disassembly of section .debug_frame:

00000000 <.debug_frame>:
   0:	0000000c 	0x0000000c
   4:	ffffffff 	0xffffffff
   8:	7c010003 	0x7c010003
   c:	00030c01 	0x00030c01
  10:	00000030 	0x00000030
  14:	00000000 	0x00000000
  18:	000100d4 	0x000100d4
  1c:	0000007c 	0x0000007c
  20:	00000404 	0x00000404
  24:	04200e00 	csrxchg	$r0,$r16,0x803
  28:	00000004 	0x00000004
  2c:	04040196 	csrxchg	$r22,$r12,0x100
  30:	0c000000 	0x0c000000
  34:	68040016 	bltu	$r0,$r22,1024(0x400) # 434 <_start-0x1bfffc10>
  38:	d6000000 	0xd6000000
  3c:	00000404 	0x00000404
  40:	00030d00 	0x00030d00
  44:	00000030 	0x00000030
  48:	00000000 	0x00000000
  4c:	00010150 	0x00010150
  50:	0000005c 	0x0000005c
  54:	00000404 	0x00000404
  58:	04200e00 	csrxchg	$r0,$r16,0x803
  5c:	00000004 	0x00000004
  60:	04040196 	csrxchg	$r22,$r12,0x100
  64:	0c000000 	0x0c000000
  68:	48040016 	bceqz	$fcc0,-2620416(0x580400) # ffd80468 <__GNU_EH_FRAME_HDR+0xe3d6f66c>
  6c:	d6000000 	0xd6000000
  70:	00000404 	0x00000404
  74:	00030d00 	0x00030d00
  78:	00000038 	0x00000038
  7c:	00000000 	0x00000000
  80:	000101ac 	0x000101ac
  84:	00000174 	0x00000174
  88:	00000404 	0x00000404
  8c:	04100e00 	csrxchg	$r0,$r16,0x403
  90:	00000008 	0x00000008
  94:	02960181 	addi.w	$r1,$r12,1408(0x580)
  98:	00000404 	0x00000404
  9c:	00160c00 	orn	$r0,$r0,$r3
  a0:	00015804 	0x00015804
  a4:	0404c100 	csrxchg	$r0,$r8,0x130
  a8:	d6000000 	0xd6000000
  ac:	00000404 	0x00000404
  b0:	00030d00 	0x00030d00
  b4:	00000030 	0x00000030
  b8:	00000000 	0x00000000
  bc:	00010320 	asrtle.d	$r25,$r0
  c0:	0000090c 	0x0000090c
  c4:	00000404 	0x00000404
  c8:	04200e00 	csrxchg	$r0,$r16,0x803
  cc:	00000004 	0x00000004
  d0:	04040196 	csrxchg	$r22,$r12,0x100
  d4:	0c000000 	0x0c000000
  d8:	f8040016 	0xf8040016
  dc:	d6000008 	0xd6000008
  e0:	00000404 	0x00000404
  e4:	00030d00 	0x00030d00
  e8:	00000030 	0x00000030
  ec:	00000000 	0x00000000
  f0:	00010c2c 	0x00010c2c
  f4:	00000074 	0x00000074
  f8:	00000404 	0x00000404
  fc:	04300e00 	csrxchg	$r0,$r16,0xc03
 100:	00000004 	0x00000004
 104:	04040196 	csrxchg	$r22,$r12,0x100
 108:	0c000000 	0x0c000000
 10c:	60040016 	blt	$r0,$r22,1024(0x400) # 50c <_start-0x1bfffb38>
 110:	d6000000 	0xd6000000
 114:	00000404 	0x00000404
 118:	00030d00 	0x00030d00
 11c:	00000038 	0x00000038
 120:	00000000 	0x00000000
 124:	00010ca0 	asrtle.d	$r5,$r3
 128:	000000e0 	0x000000e0
 12c:	00000404 	0x00000404
 130:	04500e00 	csrxchg	$r0,$r16,0x1403
 134:	00000008 	0x00000008
 138:	02960181 	addi.w	$r1,$r12,1408(0x580)
 13c:	00000404 	0x00000404
 140:	00160c00 	orn	$r0,$r0,$r3
 144:	0000c404 	0x0000c404
 148:	0404c100 	csrxchg	$r0,$r8,0x130
 14c:	d6000000 	0xd6000000
 150:	00000404 	0x00000404
 154:	00030d00 	0x00030d00
 158:	00000024 	0x00000024
 15c:	00000000 	0x00000000
 160:	00010d80 	asrtle.d	$r12,$r3
 164:	0000007c 	0x0000007c
 168:	00000404 	0x00000404
 16c:	04100e00 	csrxchg	$r0,$r16,0x403
 170:	00000008 	0x00000008
 174:	02960181 	addi.w	$r1,$r12,1408(0x580)
 178:	00000404 	0x00000404
 17c:	00160c00 	orn	$r0,$r0,$r3

Disassembly of section .debug_str:

00000000 <.debug_str>:
   0:	65646976 	bge	$r11,$r22,91240(0x16468) # 16468 <_start-0x1bfe9bdc>
   4:	61625f6f 	blt	$r27,$r15,90716(0x1625c) # 16260 <_start-0x1bfe9de4>
   8:	Address 0x0000000000000008 is out of bounds.


obj/main.o:     file format elf32-loongarch


Disassembly of section .text:

000100d4 <delay>:
// naked doesnt work
//__attribute__((naked))	

// feels like 1 second
void delay (void)
{
   100d4:	02bf8063 	addi.w	$r3,$r3,-32(0xfe0)
   100d8:	29807076 	st.w	$r22,$r3,28(0x1c)
   100dc:	02808076 	addi.w	$r22,$r3,32(0x20)
	int i = 0;
   100e0:	29bfb2c0 	st.w	$r0,$r22,-20(0xfec)
	int j = 0;
   100e4:	29bfa2c0 	st.w	$r0,$r22,-24(0xfe8)
	int n = 0;
   100e8:	29bf92c0 	st.w	$r0,$r22,-28(0xfe4)

	for (i = 0; i < 100000; i++)
   100ec:	29bfb2c0 	st.w	$r0,$r22,-20(0xfec)
   100f0:	50004000 	b	64(0x40) # 10130 <delay+0x5c>
	{
		for (j = 0; j < 10; j++)
   100f4:	29bfa2c0 	st.w	$r0,$r22,-24(0xfe8)
   100f8:	50002000 	b	32(0x20) # 10118 <delay+0x44>
		{
			n += i;
   100fc:	28bf92cd 	ld.w	$r13,$r22,-28(0xfe4)
   10100:	28bfb2cc 	ld.w	$r12,$r22,-20(0xfec)
   10104:	001031ac 	add.w	$r12,$r13,$r12
   10108:	29bf92cc 	st.w	$r12,$r22,-28(0xfe4)
		for (j = 0; j < 10; j++)
   1010c:	28bfa2cc 	ld.w	$r12,$r22,-24(0xfe8)
   10110:	0280058c 	addi.w	$r12,$r12,1(0x1)
   10114:	29bfa2cc 	st.w	$r12,$r22,-24(0xfe8)
   10118:	28bfa2cd 	ld.w	$r13,$r22,-24(0xfe8)
   1011c:	0280240c 	addi.w	$r12,$r0,9(0x9)
   10120:	67ffdd8d 	bge	$r12,$r13,-36(0x3ffdc) # 100fc <delay+0x28>
	for (i = 0; i < 100000; i++)
   10124:	28bfb2cc 	ld.w	$r12,$r22,-20(0xfec)
   10128:	0280058c 	addi.w	$r12,$r12,1(0x1)
   1012c:	29bfb2cc 	st.w	$r12,$r22,-20(0xfec)
   10130:	28bfb2cd 	ld.w	$r13,$r22,-20(0xfec)
   10134:	1400030c 	lu12i.w	$r12,24(0x18)
   10138:	039a7d8c 	ori	$r12,$r12,0x69f
   1013c:	67ffb98d 	bge	$r12,$r13,-72(0x3ffb8) # 100f4 <delay+0x20>
		}
	}
}
   10140:	03400000 	andi	$r0,$r0,0x0
   10144:	28807076 	ld.w	$r22,$r3,28(0x1c)
   10148:	02808063 	addi.w	$r3,$r3,32(0x20)
   1014c:	4c000020 	jirl	$r0,$r1,0

00010150 <delay_short>:

void delay_short (void)
{
   10150:	02bf8063 	addi.w	$r3,$r3,-32(0xfe0)
   10154:	29807076 	st.w	$r22,$r3,28(0x1c)
   10158:	02808076 	addi.w	$r22,$r3,32(0x20)
	int i = 0;
   1015c:	29bfb2c0 	st.w	$r0,$r22,-20(0xfec)
	int j = 0;
   10160:	29bf92c0 	st.w	$r0,$r22,-28(0xfe4)
	int n = 0;
   10164:	29bfa2c0 	st.w	$r0,$r22,-24(0xfe8)

	for (i = 0; i < 500000; i++)
   10168:	29bfb2c0 	st.w	$r0,$r22,-20(0xfec)
   1016c:	50002000 	b	32(0x20) # 1018c <delay_short+0x3c>
	{
		n += i;
   10170:	28bfa2cd 	ld.w	$r13,$r22,-24(0xfe8)
   10174:	28bfb2cc 	ld.w	$r12,$r22,-20(0xfec)
   10178:	001031ac 	add.w	$r12,$r13,$r12
   1017c:	29bfa2cc 	st.w	$r12,$r22,-24(0xfe8)
	for (i = 0; i < 500000; i++)
   10180:	28bfb2cc 	ld.w	$r12,$r22,-20(0xfec)
   10184:	0280058c 	addi.w	$r12,$r12,1(0x1)
   10188:	29bfb2cc 	st.w	$r12,$r22,-20(0xfec)
   1018c:	28bfb2cd 	ld.w	$r13,$r22,-20(0xfec)
   10190:	14000f4c 	lu12i.w	$r12,122(0x7a)
   10194:	03847d8c 	ori	$r12,$r12,0x11f
   10198:	67ffd98d 	bge	$r12,$r13,-40(0x3ffd8) # 10170 <delay_short+0x20>
	}
}
   1019c:	03400000 	andi	$r0,$r0,0x0
   101a0:	28807076 	ld.w	$r22,$r3,28(0x1c)
   101a4:	02808063 	addi.w	$r3,$r3,32(0x20)
   101a8:	4c000020 	jirl	$r0,$r1,0

000101ac <display>:

void display (void)
{
   101ac:	02bfc063 	addi.w	$r3,$r3,-16(0xff0)
   101b0:	29803061 	st.w	$r1,$r3,12(0xc)
   101b4:	29802076 	st.w	$r22,$r3,8(0x8)
   101b8:	02804076 	addi.w	$r22,$r3,16(0x10)

	delay();
   101bc:	57ff1bff 	bl	-232(0xfffff18) # 100d4 <delay>
	*(int*)0x10010 = 'AAAA';
   101c0:	1400020c 	lu12i.w	$r12,16(0x10)
   101c4:	0380418c 	ori	$r12,$r12,0x10
   101c8:	1482828d 	lu12i.w	$r13,267284(0x41414)
   101cc:	038505ad 	ori	$r13,$r13,0x141
   101d0:	2980018d 	st.w	$r13,$r12,0

	delay();
   101d4:	57ff03ff 	bl	-256(0xfffff00) # 100d4 <delay>
	*(int*)0x10014 = 'BBBB';
   101d8:	1400020c 	lu12i.w	$r12,16(0x10)
   101dc:	0380518c 	ori	$r12,$r12,0x14
   101e0:	1484848d 	lu12i.w	$r13,271396(0x42424)
   101e4:	038909ad 	ori	$r13,$r13,0x242
   101e8:	2980018d 	st.w	$r13,$r12,0

	delay();
   101ec:	57feebff 	bl	-280(0xffffee8) # 100d4 <delay>
	*(int*)0x10018 = 'CCCC';
   101f0:	1400020c 	lu12i.w	$r12,16(0x10)
   101f4:	0380618c 	ori	$r12,$r12,0x18
   101f8:	1486868d 	lu12i.w	$r13,275508(0x43434)
   101fc:	038d0dad 	ori	$r13,$r13,0x343
   10200:	2980018d 	st.w	$r13,$r12,0

	delay();
   10204:	57fed3ff 	bl	-304(0xffffed0) # 100d4 <delay>
	*(int*)0x1001C = 'DDDD';
   10208:	1400020c 	lu12i.w	$r12,16(0x10)
   1020c:	0380718c 	ori	$r12,$r12,0x1c
   10210:	1488888d 	lu12i.w	$r13,279620(0x44444)
   10214:	039111ad 	ori	$r13,$r13,0x444
   10218:	2980018d 	st.w	$r13,$r12,0

	delay();
   1021c:	57febbff 	bl	-328(0xffffeb8) # 100d4 <delay>
	*(int*)0x10020 = 'EEEE';
   10220:	1400020c 	lu12i.w	$r12,16(0x10)
   10224:	0380818c 	ori	$r12,$r12,0x20
   10228:	148a8a8d 	lu12i.w	$r13,283732(0x45454)
   1022c:	039515ad 	ori	$r13,$r13,0x545
   10230:	2980018d 	st.w	$r13,$r12,0

	delay();
   10234:	57fea3ff 	bl	-352(0xffffea0) # 100d4 <delay>
	*(int*)0x10024 = 'FFFF';
   10238:	1400020c 	lu12i.w	$r12,16(0x10)
   1023c:	0380918c 	ori	$r12,$r12,0x24
   10240:	148c8c8d 	lu12i.w	$r13,287844(0x46464)
   10244:	039919ad 	ori	$r13,$r13,0x646
   10248:	2980018d 	st.w	$r13,$r12,0

	delay();
   1024c:	57fe8bff 	bl	-376(0xffffe88) # 100d4 <delay>
	*(int*)0x10028 = 'GGGG';
   10250:	1400020c 	lu12i.w	$r12,16(0x10)
   10254:	0380a18c 	ori	$r12,$r12,0x28
   10258:	148e8e8d 	lu12i.w	$r13,291956(0x47474)
   1025c:	039d1dad 	ori	$r13,$r13,0x747
   10260:	2980018d 	st.w	$r13,$r12,0

	
	delay();
   10264:	57fe73ff 	bl	-400(0xffffe70) # 100d4 <delay>
	*(int*)0x10028 = '    ';
   10268:	1400020c 	lu12i.w	$r12,16(0x10)
   1026c:	0380a18c 	ori	$r12,$r12,0x28
   10270:	1440404d 	lu12i.w	$r13,131586(0x20202)
   10274:	038081ad 	ori	$r13,$r13,0x20
   10278:	2980018d 	st.w	$r13,$r12,0
	
	delay();
   1027c:	57fe5bff 	bl	-424(0xffffe58) # 100d4 <delay>
	*(int*)0x10024 = '    ';
   10280:	1400020c 	lu12i.w	$r12,16(0x10)
   10284:	0380918c 	ori	$r12,$r12,0x24
   10288:	1440404d 	lu12i.w	$r13,131586(0x20202)
   1028c:	038081ad 	ori	$r13,$r13,0x20
   10290:	2980018d 	st.w	$r13,$r12,0
	
	delay();
   10294:	57fe43ff 	bl	-448(0xffffe40) # 100d4 <delay>
	*(int*)0x10020 = '    ';
   10298:	1400020c 	lu12i.w	$r12,16(0x10)
   1029c:	0380818c 	ori	$r12,$r12,0x20
   102a0:	1440404d 	lu12i.w	$r13,131586(0x20202)
   102a4:	038081ad 	ori	$r13,$r13,0x20
   102a8:	2980018d 	st.w	$r13,$r12,0
	
	delay();
   102ac:	57fe2bff 	bl	-472(0xffffe28) # 100d4 <delay>
	*(int*)0x1001C = '    ';
   102b0:	1400020c 	lu12i.w	$r12,16(0x10)
   102b4:	0380718c 	ori	$r12,$r12,0x1c
   102b8:	1440404d 	lu12i.w	$r13,131586(0x20202)
   102bc:	038081ad 	ori	$r13,$r13,0x20
   102c0:	2980018d 	st.w	$r13,$r12,0
	
	delay();
   102c4:	57fe13ff 	bl	-496(0xffffe10) # 100d4 <delay>
	*(int*)0x10018 = '    ';
   102c8:	1400020c 	lu12i.w	$r12,16(0x10)
   102cc:	0380618c 	ori	$r12,$r12,0x18
   102d0:	1440404d 	lu12i.w	$r13,131586(0x20202)
   102d4:	038081ad 	ori	$r13,$r13,0x20
   102d8:	2980018d 	st.w	$r13,$r12,0
	
	delay();
   102dc:	57fdfbff 	bl	-520(0xffffdf8) # 100d4 <delay>
	*(int*)0x10014 = '    ';
   102e0:	1400020c 	lu12i.w	$r12,16(0x10)
   102e4:	0380518c 	ori	$r12,$r12,0x14
   102e8:	1440404d 	lu12i.w	$r13,131586(0x20202)
   102ec:	038081ad 	ori	$r13,$r13,0x20
   102f0:	2980018d 	st.w	$r13,$r12,0
	
	delay();
   102f4:	57fde3ff 	bl	-544(0xffffde0) # 100d4 <delay>
	*(int*)0x10010 = '    ';
   102f8:	1400020c 	lu12i.w	$r12,16(0x10)
   102fc:	0380418c 	ori	$r12,$r12,0x10
   10300:	1440404d 	lu12i.w	$r13,131586(0x20202)
   10304:	038081ad 	ori	$r13,$r13,0x20
   10308:	2980018d 	st.w	$r13,$r12,0
}
   1030c:	03400000 	andi	$r0,$r0,0x0
   10310:	28803061 	ld.w	$r1,$r3,12(0xc)
   10314:	28802076 	ld.w	$r22,$r3,8(0x8)
   10318:	02804063 	addi.w	$r3,$r3,16(0x10)
   1031c:	4c000020 	jirl	$r0,$r1,0

00010320 <display_dinosaur>:
#define COLUMN		80
#define ROW		30


void display_dinosaur (int* video_base, int x, int y)
{
   10320:	02bf8063 	addi.w	$r3,$r3,-32(0xfe0)
   10324:	29807076 	st.w	$r22,$r3,28(0x1c)
   10328:	02808076 	addi.w	$r22,$r3,32(0x20)
   1032c:	29bfb2c4 	st.w	$r4,$r22,-20(0xfec)
   10330:	29bfa2c5 	st.w	$r5,$r22,-24(0xfe8)
   10334:	29bf92c6 	st.w	$r6,$r22,-28(0xfe4)
	// row 0
	video_base[COLUMN / sizeof(int) *  0 + 0] = '    ';
   10338:	28bfb2cc 	ld.w	$r12,$r22,-20(0xfec)
   1033c:	1440404d 	lu12i.w	$r13,131586(0x20202)
   10340:	038081ad 	ori	$r13,$r13,0x20
   10344:	2980018d 	st.w	$r13,$r12,0
	video_base[COLUMN / sizeof(int) *  0 + 1] = '    ';
   10348:	28bfb2cc 	ld.w	$r12,$r22,-20(0xfec)
   1034c:	0280118c 	addi.w	$r12,$r12,4(0x4)
   10350:	1440404d 	lu12i.w	$r13,131586(0x20202)
   10354:	038081ad 	ori	$r13,$r13,0x20
   10358:	2980018d 	st.w	$r13,$r12,0
	video_base[COLUMN / sizeof(int) *  0 + 2] = 'X   ';
   1035c:	28bfb2cc 	ld.w	$r12,$r22,-20(0xfec)
   10360:	0280218c 	addi.w	$r12,$r12,8(0x8)
   10364:	14b0404d 	lu12i.w	$r13,360962(0x58202)
   10368:	038081ad 	ori	$r13,$r13,0x20
   1036c:	2980018d 	st.w	$r13,$r12,0
	video_base[COLUMN / sizeof(int) *  0 + 3] = 'XXXX';
   10370:	28bfb2cc 	ld.w	$r12,$r22,-20(0xfec)
   10374:	0280318c 	addi.w	$r12,$r12,12(0xc)
   10378:	14b0b0ad 	lu12i.w	$r13,361861(0x58585)
   1037c:	03a161ad 	ori	$r13,$r13,0x858
   10380:	2980018d 	st.w	$r13,$r12,0
	video_base[COLUMN / sizeof(int) *  0 + 4] = 'XXXX';
   10384:	28bfb2cc 	ld.w	$r12,$r22,-20(0xfec)
   10388:	0280418c 	addi.w	$r12,$r12,16(0x10)
   1038c:	14b0b0ad 	lu12i.w	$r13,361861(0x58585)
   10390:	03a161ad 	ori	$r13,$r13,0x858
   10394:	2980018d 	st.w	$r13,$r12,0
	video_base[COLUMN / sizeof(int) *  0 + 5] = '   X';
   10398:	28bfb2cc 	ld.w	$r12,$r22,-20(0xfec)
   1039c:	0280518c 	addi.w	$r12,$r12,20(0x14)
   103a0:	1440404d 	lu12i.w	$r13,131586(0x20202)
   103a4:	038161ad 	ori	$r13,$r13,0x58
   103a8:	2980018d 	st.w	$r13,$r12,0

	// row 1
	video_base[COLUMN / sizeof(int) *  1 + 0] = '    ';
   103ac:	28bfb2cc 	ld.w	$r12,$r22,-20(0xfec)
   103b0:	0281418c 	addi.w	$r12,$r12,80(0x50)
   103b4:	1440404d 	lu12i.w	$r13,131586(0x20202)
   103b8:	038081ad 	ori	$r13,$r13,0x20
   103bc:	2980018d 	st.w	$r13,$r12,0
	video_base[COLUMN / sizeof(int) *  1 + 1] = '    ';
   103c0:	28bfb2cc 	ld.w	$r12,$r22,-20(0xfec)
   103c4:	0281518c 	addi.w	$r12,$r12,84(0x54)
   103c8:	1440404d 	lu12i.w	$r13,131586(0x20202)
   103cc:	038081ad 	ori	$r13,$r13,0x20
   103d0:	2980018d 	st.w	$r13,$r12,0
	video_base[COLUMN / sizeof(int) *  1 + 2] = 'XX  ';
   103d4:	28bfb2cc 	ld.w	$r12,$r22,-20(0xfec)
   103d8:	0281618c 	addi.w	$r12,$r12,88(0x58)
   103dc:	14b0b04d 	lu12i.w	$r13,361858(0x58582)
   103e0:	038081ad 	ori	$r13,$r13,0x20
   103e4:	2980018d 	st.w	$r13,$r12,0
	video_base[COLUMN / sizeof(int) *  1 + 3] = 'XXX ';
   103e8:	28bfb2cc 	ld.w	$r12,$r22,-20(0xfec)
   103ec:	0281718c 	addi.w	$r12,$r12,92(0x5c)
   103f0:	14b0b0ad 	lu12i.w	$r13,361861(0x58585)
   103f4:	03a081ad 	ori	$r13,$r13,0x820
   103f8:	2980018d 	st.w	$r13,$r12,0
	video_base[COLUMN / sizeof(int) *  1 + 4] = 'XXXX';
   103fc:	28bfb2cc 	ld.w	$r12,$r22,-20(0xfec)
   10400:	0281818c 	addi.w	$r12,$r12,96(0x60)
   10404:	14b0b0ad 	lu12i.w	$r13,361861(0x58585)
   10408:	03a161ad 	ori	$r13,$r13,0x858
   1040c:	2980018d 	st.w	$r13,$r12,0
	video_base[COLUMN / sizeof(int) *  1 + 5] = '  XX';
   10410:	28bfb2cc 	ld.w	$r12,$r22,-20(0xfec)
   10414:	0281918c 	addi.w	$r12,$r12,100(0x64)
   10418:	144040ad 	lu12i.w	$r13,131589(0x20205)
   1041c:	03a161ad 	ori	$r13,$r13,0x858
   10420:	2980018d 	st.w	$r13,$r12,0

	// row 2
	video_base[COLUMN / sizeof(int) *  2 + 0] = '    ';
   10424:	28bfb2cc 	ld.w	$r12,$r22,-20(0xfec)
   10428:	0282818c 	addi.w	$r12,$r12,160(0xa0)
   1042c:	1440404d 	lu12i.w	$r13,131586(0x20202)
   10430:	038081ad 	ori	$r13,$r13,0x20
   10434:	2980018d 	st.w	$r13,$r12,0
	video_base[COLUMN / sizeof(int) *  2 + 1] = '    ';
   10438:	28bfb2cc 	ld.w	$r12,$r22,-20(0xfec)
   1043c:	0282918c 	addi.w	$r12,$r12,164(0xa4)
   10440:	1440404d 	lu12i.w	$r13,131586(0x20202)
   10444:	038081ad 	ori	$r13,$r13,0x20
   10448:	2980018d 	st.w	$r13,$r12,0
	video_base[COLUMN / sizeof(int) *  2 + 2] = 'XX  ';
   1044c:	28bfb2cc 	ld.w	$r12,$r22,-20(0xfec)
   10450:	0282a18c 	addi.w	$r12,$r12,168(0xa8)
   10454:	14b0b04d 	lu12i.w	$r13,361858(0x58582)
   10458:	038081ad 	ori	$r13,$r13,0x20
   1045c:	2980018d 	st.w	$r13,$r12,0
	video_base[COLUMN / sizeof(int) *  2 + 3] = 'XXXX';
   10460:	28bfb2cc 	ld.w	$r12,$r22,-20(0xfec)
   10464:	0282b18c 	addi.w	$r12,$r12,172(0xac)
   10468:	14b0b0ad 	lu12i.w	$r13,361861(0x58585)
   1046c:	03a161ad 	ori	$r13,$r13,0x858
   10470:	2980018d 	st.w	$r13,$r12,0
	video_base[COLUMN / sizeof(int) *  2 + 4] = 'XXXX';
   10474:	28bfb2cc 	ld.w	$r12,$r22,-20(0xfec)
   10478:	0282c18c 	addi.w	$r12,$r12,176(0xb0)
   1047c:	14b0b0ad 	lu12i.w	$r13,361861(0x58585)
   10480:	03a161ad 	ori	$r13,$r13,0x858
   10484:	2980018d 	st.w	$r13,$r12,0
	video_base[COLUMN / sizeof(int) *  2 + 5] = ' XXX';
   10488:	28bfb2cc 	ld.w	$r12,$r22,-20(0xfec)
   1048c:	0282d18c 	addi.w	$r12,$r12,180(0xb4)
   10490:	1440b0ad 	lu12i.w	$r13,132485(0x20585)
   10494:	03a161ad 	ori	$r13,$r13,0x858
   10498:	2980018d 	st.w	$r13,$r12,0


	// row 3
	video_base[COLUMN / sizeof(int) *  3 + 0] = '    ';
   1049c:	28bfb2cc 	ld.w	$r12,$r22,-20(0xfec)
   104a0:	0283c18c 	addi.w	$r12,$r12,240(0xf0)
   104a4:	1440404d 	lu12i.w	$r13,131586(0x20202)
   104a8:	038081ad 	ori	$r13,$r13,0x20
   104ac:	2980018d 	st.w	$r13,$r12,0
	video_base[COLUMN / sizeof(int) *  3 + 1] = '    ';
   104b0:	28bfb2cc 	ld.w	$r12,$r22,-20(0xfec)
   104b4:	0283d18c 	addi.w	$r12,$r12,244(0xf4)
   104b8:	1440404d 	lu12i.w	$r13,131586(0x20202)
   104bc:	038081ad 	ori	$r13,$r13,0x20
   104c0:	2980018d 	st.w	$r13,$r12,0
	video_base[COLUMN / sizeof(int) *  3 + 2] = 'XX  ';
   104c4:	28bfb2cc 	ld.w	$r12,$r22,-20(0xfec)
   104c8:	0283e18c 	addi.w	$r12,$r12,248(0xf8)
   104cc:	14b0b04d 	lu12i.w	$r13,361858(0x58582)
   104d0:	038081ad 	ori	$r13,$r13,0x20
   104d4:	2980018d 	st.w	$r13,$r12,0
	video_base[COLUMN / sizeof(int) *  3 + 3] = 'XXXX';
   104d8:	28bfb2cc 	ld.w	$r12,$r22,-20(0xfec)
   104dc:	0283f18c 	addi.w	$r12,$r12,252(0xfc)
   104e0:	14b0b0ad 	lu12i.w	$r13,361861(0x58585)
   104e4:	03a161ad 	ori	$r13,$r13,0x858
   104e8:	2980018d 	st.w	$r13,$r12,0
	video_base[COLUMN / sizeof(int) *  3 + 4] = 'XXXX';
   104ec:	28bfb2cc 	ld.w	$r12,$r22,-20(0xfec)
   104f0:	0284018c 	addi.w	$r12,$r12,256(0x100)
   104f4:	14b0b0ad 	lu12i.w	$r13,361861(0x58585)
   104f8:	03a161ad 	ori	$r13,$r13,0x858
   104fc:	2980018d 	st.w	$r13,$r12,0
	video_base[COLUMN / sizeof(int) *  3 + 5] = ' XXX';
   10500:	28bfb2cc 	ld.w	$r12,$r22,-20(0xfec)
   10504:	0284118c 	addi.w	$r12,$r12,260(0x104)
   10508:	1440b0ad 	lu12i.w	$r13,132485(0x20585)
   1050c:	03a161ad 	ori	$r13,$r13,0x858
   10510:	2980018d 	st.w	$r13,$r12,0

	// row 4
	video_base[COLUMN / sizeof(int) *  4 + 0] = '    ';
   10514:	28bfb2cc 	ld.w	$r12,$r22,-20(0xfec)
   10518:	0285018c 	addi.w	$r12,$r12,320(0x140)
   1051c:	1440404d 	lu12i.w	$r13,131586(0x20202)
   10520:	038081ad 	ori	$r13,$r13,0x20
   10524:	2980018d 	st.w	$r13,$r12,0
	video_base[COLUMN / sizeof(int) *  4 + 1] = '    ';
   10528:	28bfb2cc 	ld.w	$r12,$r22,-20(0xfec)
   1052c:	0285118c 	addi.w	$r12,$r12,324(0x144)
   10530:	1440404d 	lu12i.w	$r13,131586(0x20202)
   10534:	038081ad 	ori	$r13,$r13,0x20
   10538:	2980018d 	st.w	$r13,$r12,0
	video_base[COLUMN / sizeof(int) *  4 + 2] = 'XX  ';
   1053c:	28bfb2cc 	ld.w	$r12,$r22,-20(0xfec)
   10540:	0285218c 	addi.w	$r12,$r12,328(0x148)
   10544:	14b0b04d 	lu12i.w	$r13,361858(0x58582)
   10548:	038081ad 	ori	$r13,$r13,0x20
   1054c:	2980018d 	st.w	$r13,$r12,0
	video_base[COLUMN / sizeof(int) *  4 + 3] = 'XXXX';
   10550:	28bfb2cc 	ld.w	$r12,$r22,-20(0xfec)
   10554:	0285318c 	addi.w	$r12,$r12,332(0x14c)
   10558:	14b0b0ad 	lu12i.w	$r13,361861(0x58585)
   1055c:	03a161ad 	ori	$r13,$r13,0x858
   10560:	2980018d 	st.w	$r13,$r12,0
	video_base[COLUMN / sizeof(int) *  4 + 4] = 'XXXX';
   10564:	28bfb2cc 	ld.w	$r12,$r22,-20(0xfec)
   10568:	0285418c 	addi.w	$r12,$r12,336(0x150)
   1056c:	14b0b0ad 	lu12i.w	$r13,361861(0x58585)
   10570:	03a161ad 	ori	$r13,$r13,0x858
   10574:	2980018d 	st.w	$r13,$r12,0
	video_base[COLUMN / sizeof(int) *  4 + 5] = ' XXX';
   10578:	28bfb2cc 	ld.w	$r12,$r22,-20(0xfec)
   1057c:	0285518c 	addi.w	$r12,$r12,340(0x154)
   10580:	1440b0ad 	lu12i.w	$r13,132485(0x20585)
   10584:	03a161ad 	ori	$r13,$r13,0x858
   10588:	2980018d 	st.w	$r13,$r12,0

	// row 5
	video_base[COLUMN / sizeof(int) *  5 + 0] = '    ';
   1058c:	28bfb2cc 	ld.w	$r12,$r22,-20(0xfec)
   10590:	0286418c 	addi.w	$r12,$r12,400(0x190)
   10594:	1440404d 	lu12i.w	$r13,131586(0x20202)
   10598:	038081ad 	ori	$r13,$r13,0x20
   1059c:	2980018d 	st.w	$r13,$r12,0
	video_base[COLUMN / sizeof(int) *  5 + 1] = '    ';
   105a0:	28bfb2cc 	ld.w	$r12,$r22,-20(0xfec)
   105a4:	0286518c 	addi.w	$r12,$r12,404(0x194)
   105a8:	1440404d 	lu12i.w	$r13,131586(0x20202)
   105ac:	038081ad 	ori	$r13,$r13,0x20
   105b0:	2980018d 	st.w	$r13,$r12,0
	video_base[COLUMN / sizeof(int) *  5 + 2] = 'XX  ';
   105b4:	28bfb2cc 	ld.w	$r12,$r22,-20(0xfec)
   105b8:	0286618c 	addi.w	$r12,$r12,408(0x198)
   105bc:	14b0b04d 	lu12i.w	$r13,361858(0x58582)
   105c0:	038081ad 	ori	$r13,$r13,0x20
   105c4:	2980018d 	st.w	$r13,$r12,0
	video_base[COLUMN / sizeof(int) *  5 + 3] = 'XXXX';
   105c8:	28bfb2cc 	ld.w	$r12,$r22,-20(0xfec)
   105cc:	0286718c 	addi.w	$r12,$r12,412(0x19c)
   105d0:	14b0b0ad 	lu12i.w	$r13,361861(0x58585)
   105d4:	03a161ad 	ori	$r13,$r13,0x858
   105d8:	2980018d 	st.w	$r13,$r12,0
	video_base[COLUMN / sizeof(int) *  5 + 4] = '   X';
   105dc:	28bfb2cc 	ld.w	$r12,$r22,-20(0xfec)
   105e0:	0286818c 	addi.w	$r12,$r12,416(0x1a0)
   105e4:	1440404d 	lu12i.w	$r13,131586(0x20202)
   105e8:	038161ad 	ori	$r13,$r13,0x58
   105ec:	2980018d 	st.w	$r13,$r12,0
	video_base[COLUMN / sizeof(int) *  5 + 5] = '    ';
   105f0:	28bfb2cc 	ld.w	$r12,$r22,-20(0xfec)
   105f4:	0286918c 	addi.w	$r12,$r12,420(0x1a4)
   105f8:	1440404d 	lu12i.w	$r13,131586(0x20202)
   105fc:	038081ad 	ori	$r13,$r13,0x20
   10600:	2980018d 	st.w	$r13,$r12,0

	// row 6
	video_base[COLUMN / sizeof(int) *  6 + 0] = '   X';
   10604:	28bfb2cc 	ld.w	$r12,$r22,-20(0xfec)
   10608:	0287818c 	addi.w	$r12,$r12,480(0x1e0)
   1060c:	1440404d 	lu12i.w	$r13,131586(0x20202)
   10610:	038161ad 	ori	$r13,$r13,0x58
   10614:	2980018d 	st.w	$r13,$r12,0
	video_base[COLUMN / sizeof(int) *  6 + 1] = '    ';
   10618:	28bfb2cc 	ld.w	$r12,$r22,-20(0xfec)
   1061c:	0287918c 	addi.w	$r12,$r12,484(0x1e4)
   10620:	1440404d 	lu12i.w	$r13,131586(0x20202)
   10624:	038081ad 	ori	$r13,$r13,0x20
   10628:	2980018d 	st.w	$r13,$r12,0
	video_base[COLUMN / sizeof(int) *  6 + 2] = 'XXX ';
   1062c:	28bfb2cc 	ld.w	$r12,$r22,-20(0xfec)
   10630:	0287a18c 	addi.w	$r12,$r12,488(0x1e8)
   10634:	14b0b0ad 	lu12i.w	$r13,361861(0x58585)
   10638:	03a081ad 	ori	$r13,$r13,0x820
   1063c:	2980018d 	st.w	$r13,$r12,0
	video_base[COLUMN / sizeof(int) *  6 + 3] = 'XXXX';
   10640:	28bfb2cc 	ld.w	$r12,$r22,-20(0xfec)
   10644:	0287b18c 	addi.w	$r12,$r12,492(0x1ec)
   10648:	14b0b0ad 	lu12i.w	$r13,361861(0x58585)
   1064c:	03a161ad 	ori	$r13,$r13,0x858
   10650:	2980018d 	st.w	$r13,$r12,0
	video_base[COLUMN / sizeof(int) *  6 + 4] = 'XXXX';
   10654:	28bfb2cc 	ld.w	$r12,$r22,-20(0xfec)
   10658:	0287c18c 	addi.w	$r12,$r12,496(0x1f0)
   1065c:	14b0b0ad 	lu12i.w	$r13,361861(0x58585)
   10660:	03a161ad 	ori	$r13,$r13,0x858
   10664:	2980018d 	st.w	$r13,$r12,0
	video_base[COLUMN / sizeof(int) *  6 + 5] = '    ';
   10668:	28bfb2cc 	ld.w	$r12,$r22,-20(0xfec)
   1066c:	0287d18c 	addi.w	$r12,$r12,500(0x1f4)
   10670:	1440404d 	lu12i.w	$r13,131586(0x20202)
   10674:	038081ad 	ori	$r13,$r13,0x20
   10678:	2980018d 	st.w	$r13,$r12,0

	// row 7
	video_base[COLUMN / sizeof(int) *  7 + 0] = '   X';
   1067c:	28bfb2cc 	ld.w	$r12,$r22,-20(0xfec)
   10680:	0288c18c 	addi.w	$r12,$r12,560(0x230)
   10684:	1440404d 	lu12i.w	$r13,131586(0x20202)
   10688:	038161ad 	ori	$r13,$r13,0x58
   1068c:	2980018d 	st.w	$r13,$r12,0
	video_base[COLUMN / sizeof(int) *  7 + 1] = '    ';
   10690:	28bfb2cc 	ld.w	$r12,$r22,-20(0xfec)
   10694:	0288d18c 	addi.w	$r12,$r12,564(0x234)
   10698:	1440404d 	lu12i.w	$r13,131586(0x20202)
   1069c:	038081ad 	ori	$r13,$r13,0x20
   106a0:	2980018d 	st.w	$r13,$r12,0
	video_base[COLUMN / sizeof(int) *  7 + 2] = 'XXXX';
   106a4:	28bfb2cc 	ld.w	$r12,$r22,-20(0xfec)
   106a8:	0288e18c 	addi.w	$r12,$r12,568(0x238)
   106ac:	14b0b0ad 	lu12i.w	$r13,361861(0x58585)
   106b0:	03a161ad 	ori	$r13,$r13,0x858
   106b4:	2980018d 	st.w	$r13,$r12,0
	video_base[COLUMN / sizeof(int) *  7 + 3] = ' XXX';
   106b8:	28bfb2cc 	ld.w	$r12,$r22,-20(0xfec)
   106bc:	0288f18c 	addi.w	$r12,$r12,572(0x23c)
   106c0:	1440b0ad 	lu12i.w	$r13,132485(0x20585)
   106c4:	03a161ad 	ori	$r13,$r13,0x858
   106c8:	2980018d 	st.w	$r13,$r12,0
	video_base[COLUMN / sizeof(int) *  7 + 4] = '    ';
   106cc:	28bfb2cc 	ld.w	$r12,$r22,-20(0xfec)
   106d0:	0289018c 	addi.w	$r12,$r12,576(0x240)
   106d4:	1440404d 	lu12i.w	$r13,131586(0x20202)
   106d8:	038081ad 	ori	$r13,$r13,0x20
   106dc:	2980018d 	st.w	$r13,$r12,0
	video_base[COLUMN / sizeof(int) *  7 + 5] = '    ';
   106e0:	28bfb2cc 	ld.w	$r12,$r22,-20(0xfec)
   106e4:	0289118c 	addi.w	$r12,$r12,580(0x244)
   106e8:	1440404d 	lu12i.w	$r13,131586(0x20202)
   106ec:	038081ad 	ori	$r13,$r13,0x20
   106f0:	2980018d 	st.w	$r13,$r12,0

	// row 8
	video_base[COLUMN / sizeof(int) *  8 + 0] = '  XX';
   106f4:	28bfb2cc 	ld.w	$r12,$r22,-20(0xfec)
   106f8:	028a018c 	addi.w	$r12,$r12,640(0x280)
   106fc:	144040ad 	lu12i.w	$r13,131589(0x20205)
   10700:	03a161ad 	ori	$r13,$r13,0x858
   10704:	2980018d 	st.w	$r13,$r12,0
	video_base[COLUMN / sizeof(int) *  8 + 1] = 'X   ';
   10708:	28bfb2cc 	ld.w	$r12,$r22,-20(0xfec)
   1070c:	028a118c 	addi.w	$r12,$r12,644(0x284)
   10710:	14b0404d 	lu12i.w	$r13,360962(0x58202)
   10714:	038081ad 	ori	$r13,$r13,0x20
   10718:	2980018d 	st.w	$r13,$r12,0
	video_base[COLUMN / sizeof(int) *  8 + 2] = 'XXXX';
   1071c:	28bfb2cc 	ld.w	$r12,$r22,-20(0xfec)
   10720:	028a218c 	addi.w	$r12,$r12,648(0x288)
   10724:	14b0b0ad 	lu12i.w	$r13,361861(0x58585)
   10728:	03a161ad 	ori	$r13,$r13,0x858
   1072c:	2980018d 	st.w	$r13,$r12,0
	video_base[COLUMN / sizeof(int) *  8 + 3] = ' XXX';
   10730:	28bfb2cc 	ld.w	$r12,$r22,-20(0xfec)
   10734:	028a318c 	addi.w	$r12,$r12,652(0x28c)
   10738:	1440b0ad 	lu12i.w	$r13,132485(0x20585)
   1073c:	03a161ad 	ori	$r13,$r13,0x858
   10740:	2980018d 	st.w	$r13,$r12,0
	video_base[COLUMN / sizeof(int) *  8 + 4] = '    ';
   10744:	28bfb2cc 	ld.w	$r12,$r22,-20(0xfec)
   10748:	028a418c 	addi.w	$r12,$r12,656(0x290)
   1074c:	1440404d 	lu12i.w	$r13,131586(0x20202)
   10750:	038081ad 	ori	$r13,$r13,0x20
   10754:	2980018d 	st.w	$r13,$r12,0
	video_base[COLUMN / sizeof(int) *  8 + 5] = '    ';
   10758:	28bfb2cc 	ld.w	$r12,$r22,-20(0xfec)
   1075c:	028a518c 	addi.w	$r12,$r12,660(0x294)
   10760:	1440404d 	lu12i.w	$r13,131586(0x20202)
   10764:	038081ad 	ori	$r13,$r13,0x20
   10768:	2980018d 	st.w	$r13,$r12,0

	// row 9
	video_base[COLUMN / sizeof(int) *  9 + 0] = 'XXXX';
   1076c:	28bfb2cc 	ld.w	$r12,$r22,-20(0xfec)
   10770:	028b418c 	addi.w	$r12,$r12,720(0x2d0)
   10774:	14b0b0ad 	lu12i.w	$r13,361861(0x58585)
   10778:	03a161ad 	ori	$r13,$r13,0x858
   1077c:	2980018d 	st.w	$r13,$r12,0
	video_base[COLUMN / sizeof(int) *  9 + 1] = 'XX  ';
   10780:	28bfb2cc 	ld.w	$r12,$r22,-20(0xfec)
   10784:	028b518c 	addi.w	$r12,$r12,724(0x2d4)
   10788:	14b0b04d 	lu12i.w	$r13,361858(0x58582)
   1078c:	038081ad 	ori	$r13,$r13,0x20
   10790:	2980018d 	st.w	$r13,$r12,0
	video_base[COLUMN / sizeof(int) *  9 + 2] = 'XXXX';
   10794:	28bfb2cc 	ld.w	$r12,$r22,-20(0xfec)
   10798:	028b618c 	addi.w	$r12,$r12,728(0x2d8)
   1079c:	14b0b0ad 	lu12i.w	$r13,361861(0x58585)
   107a0:	03a161ad 	ori	$r13,$r13,0x858
   107a4:	2980018d 	st.w	$r13,$r12,0
	video_base[COLUMN / sizeof(int) *  9 + 3] = 'XXXX';
   107a8:	28bfb2cc 	ld.w	$r12,$r22,-20(0xfec)
   107ac:	028b718c 	addi.w	$r12,$r12,732(0x2dc)
   107b0:	14b0b0ad 	lu12i.w	$r13,361861(0x58585)
   107b4:	03a161ad 	ori	$r13,$r13,0x858
   107b8:	2980018d 	st.w	$r13,$r12,0
	video_base[COLUMN / sizeof(int) *  9 + 4] = '  XX';
   107bc:	28bfb2cc 	ld.w	$r12,$r22,-20(0xfec)
   107c0:	028b818c 	addi.w	$r12,$r12,736(0x2e0)
   107c4:	144040ad 	lu12i.w	$r13,131589(0x20205)
   107c8:	03a161ad 	ori	$r13,$r13,0x858
   107cc:	2980018d 	st.w	$r13,$r12,0
	video_base[COLUMN / sizeof(int) *  9 + 5] = '    ';
   107d0:	28bfb2cc 	ld.w	$r12,$r22,-20(0xfec)
   107d4:	028b918c 	addi.w	$r12,$r12,740(0x2e4)
   107d8:	1440404d 	lu12i.w	$r13,131586(0x20202)
   107dc:	038081ad 	ori	$r13,$r13,0x20
   107e0:	2980018d 	st.w	$r13,$r12,0

	// row 10
	video_base[COLUMN / sizeof(int) * 10 + 0] = 'XXXX';
   107e4:	28bfb2cc 	ld.w	$r12,$r22,-20(0xfec)
   107e8:	028c818c 	addi.w	$r12,$r12,800(0x320)
   107ec:	14b0b0ad 	lu12i.w	$r13,361861(0x58585)
   107f0:	03a161ad 	ori	$r13,$r13,0x858
   107f4:	2980018d 	st.w	$r13,$r12,0
	video_base[COLUMN / sizeof(int) * 10 + 1] = 'XXXX';
   107f8:	28bfb2cc 	ld.w	$r12,$r22,-20(0xfec)
   107fc:	028c918c 	addi.w	$r12,$r12,804(0x324)
   10800:	14b0b0ad 	lu12i.w	$r13,361861(0x58585)
   10804:	03a161ad 	ori	$r13,$r13,0x858
   10808:	2980018d 	st.w	$r13,$r12,0
	video_base[COLUMN / sizeof(int) * 10 + 2] = 'XXXX';
   1080c:	28bfb2cc 	ld.w	$r12,$r22,-20(0xfec)
   10810:	028ca18c 	addi.w	$r12,$r12,808(0x328)
   10814:	14b0b0ad 	lu12i.w	$r13,361861(0x58585)
   10818:	03a161ad 	ori	$r13,$r13,0x858
   1081c:	2980018d 	st.w	$r13,$r12,0
	video_base[COLUMN / sizeof(int) * 10 + 3] = 'XXXX';
   10820:	28bfb2cc 	ld.w	$r12,$r22,-20(0xfec)
   10824:	028cb18c 	addi.w	$r12,$r12,812(0x32c)
   10828:	14b0b0ad 	lu12i.w	$r13,361861(0x58585)
   1082c:	03a161ad 	ori	$r13,$r13,0x858
   10830:	2980018d 	st.w	$r13,$r12,0
	video_base[COLUMN / sizeof(int) * 10 + 4] = '  X ';
   10834:	28bfb2cc 	ld.w	$r12,$r22,-20(0xfec)
   10838:	028cc18c 	addi.w	$r12,$r12,816(0x330)
   1083c:	144040ad 	lu12i.w	$r13,131589(0x20205)
   10840:	03a081ad 	ori	$r13,$r13,0x820
   10844:	2980018d 	st.w	$r13,$r12,0
	video_base[COLUMN / sizeof(int) * 10 + 5] = '    ';
   10848:	28bfb2cc 	ld.w	$r12,$r22,-20(0xfec)
   1084c:	028cd18c 	addi.w	$r12,$r12,820(0x334)
   10850:	1440404d 	lu12i.w	$r13,131586(0x20202)
   10854:	038081ad 	ori	$r13,$r13,0x20
   10858:	2980018d 	st.w	$r13,$r12,0

	// row 11
	video_base[COLUMN / sizeof(int) * 11 + 0] = 'XXX ';
   1085c:	28bfb2cc 	ld.w	$r12,$r22,-20(0xfec)
   10860:	028dc18c 	addi.w	$r12,$r12,880(0x370)
   10864:	14b0b0ad 	lu12i.w	$r13,361861(0x58585)
   10868:	03a081ad 	ori	$r13,$r13,0x820
   1086c:	2980018d 	st.w	$r13,$r12,0
	video_base[COLUMN / sizeof(int) * 11 + 1] = 'XXXX';
   10870:	28bfb2cc 	ld.w	$r12,$r22,-20(0xfec)
   10874:	028dd18c 	addi.w	$r12,$r12,884(0x374)
   10878:	14b0b0ad 	lu12i.w	$r13,361861(0x58585)
   1087c:	03a161ad 	ori	$r13,$r13,0x858
   10880:	2980018d 	st.w	$r13,$r12,0
	video_base[COLUMN / sizeof(int) * 11 + 2] = 'XXXX';
   10884:	28bfb2cc 	ld.w	$r12,$r22,-20(0xfec)
   10888:	028de18c 	addi.w	$r12,$r12,888(0x378)
   1088c:	14b0b0ad 	lu12i.w	$r13,361861(0x58585)
   10890:	03a161ad 	ori	$r13,$r13,0x858
   10894:	2980018d 	st.w	$r13,$r12,0
	video_base[COLUMN / sizeof(int) * 11 + 3] = 'XXXX';
   10898:	28bfb2cc 	ld.w	$r12,$r22,-20(0xfec)
   1089c:	028df18c 	addi.w	$r12,$r12,892(0x37c)
   108a0:	14b0b0ad 	lu12i.w	$r13,361861(0x58585)
   108a4:	03a161ad 	ori	$r13,$r13,0x858
   108a8:	2980018d 	st.w	$r13,$r12,0
	video_base[COLUMN / sizeof(int) * 11 + 4] = '    ';
   108ac:	28bfb2cc 	ld.w	$r12,$r22,-20(0xfec)
   108b0:	028e018c 	addi.w	$r12,$r12,896(0x380)
   108b4:	1440404d 	lu12i.w	$r13,131586(0x20202)
   108b8:	038081ad 	ori	$r13,$r13,0x20
   108bc:	2980018d 	st.w	$r13,$r12,0
	video_base[COLUMN / sizeof(int) * 11 + 5] = '    ';
   108c0:	28bfb2cc 	ld.w	$r12,$r22,-20(0xfec)
   108c4:	028e118c 	addi.w	$r12,$r12,900(0x384)
   108c8:	1440404d 	lu12i.w	$r13,131586(0x20202)
   108cc:	038081ad 	ori	$r13,$r13,0x20
   108d0:	2980018d 	st.w	$r13,$r12,0

	// row 12
	video_base[COLUMN / sizeof(int) * 12 + 0] = 'XX  ';
   108d4:	28bfb2cc 	ld.w	$r12,$r22,-20(0xfec)
   108d8:	028f018c 	addi.w	$r12,$r12,960(0x3c0)
   108dc:	14b0b04d 	lu12i.w	$r13,361858(0x58582)
   108e0:	038081ad 	ori	$r13,$r13,0x20
   108e4:	2980018d 	st.w	$r13,$r12,0
	video_base[COLUMN / sizeof(int) * 12 + 1] = 'XXXX';
   108e8:	28bfb2cc 	ld.w	$r12,$r22,-20(0xfec)
   108ec:	028f118c 	addi.w	$r12,$r12,964(0x3c4)
   108f0:	14b0b0ad 	lu12i.w	$r13,361861(0x58585)
   108f4:	03a161ad 	ori	$r13,$r13,0x858
   108f8:	2980018d 	st.w	$r13,$r12,0
	video_base[COLUMN / sizeof(int) * 12 + 2] = 'XXXX';
   108fc:	28bfb2cc 	ld.w	$r12,$r22,-20(0xfec)
   10900:	028f218c 	addi.w	$r12,$r12,968(0x3c8)
   10904:	14b0b0ad 	lu12i.w	$r13,361861(0x58585)
   10908:	03a161ad 	ori	$r13,$r13,0x858
   1090c:	2980018d 	st.w	$r13,$r12,0
	video_base[COLUMN / sizeof(int) * 12 + 3] = 'XXXX';
   10910:	28bfb2cc 	ld.w	$r12,$r22,-20(0xfec)
   10914:	028f318c 	addi.w	$r12,$r12,972(0x3cc)
   10918:	14b0b0ad 	lu12i.w	$r13,361861(0x58585)
   1091c:	03a161ad 	ori	$r13,$r13,0x858
   10920:	2980018d 	st.w	$r13,$r12,0
	video_base[COLUMN / sizeof(int) * 12 + 4] = '    ';
   10924:	28bfb2cc 	ld.w	$r12,$r22,-20(0xfec)
   10928:	028f418c 	addi.w	$r12,$r12,976(0x3d0)
   1092c:	1440404d 	lu12i.w	$r13,131586(0x20202)
   10930:	038081ad 	ori	$r13,$r13,0x20
   10934:	2980018d 	st.w	$r13,$r12,0
	video_base[COLUMN / sizeof(int) * 12 + 5] = '    ';
   10938:	28bfb2cc 	ld.w	$r12,$r22,-20(0xfec)
   1093c:	028f518c 	addi.w	$r12,$r12,980(0x3d4)
   10940:	1440404d 	lu12i.w	$r13,131586(0x20202)
   10944:	038081ad 	ori	$r13,$r13,0x20
   10948:	2980018d 	st.w	$r13,$r12,0


	// row 13
	video_base[COLUMN / sizeof(int) * 13 + 0] = 'X   ';
   1094c:	28bfb2cc 	ld.w	$r12,$r22,-20(0xfec)
   10950:	0290418c 	addi.w	$r12,$r12,1040(0x410)
   10954:	14b0404d 	lu12i.w	$r13,360962(0x58202)
   10958:	038081ad 	ori	$r13,$r13,0x20
   1095c:	2980018d 	st.w	$r13,$r12,0
	video_base[COLUMN / sizeof(int) * 13 + 1] = 'XXXX';
   10960:	28bfb2cc 	ld.w	$r12,$r22,-20(0xfec)
   10964:	0290518c 	addi.w	$r12,$r12,1044(0x414)
   10968:	14b0b0ad 	lu12i.w	$r13,361861(0x58585)
   1096c:	03a161ad 	ori	$r13,$r13,0x858
   10970:	2980018d 	st.w	$r13,$r12,0
	video_base[COLUMN / sizeof(int) * 13 + 2] = 'XXXX';
   10974:	28bfb2cc 	ld.w	$r12,$r22,-20(0xfec)
   10978:	0290618c 	addi.w	$r12,$r12,1048(0x418)
   1097c:	14b0b0ad 	lu12i.w	$r13,361861(0x58585)
   10980:	03a161ad 	ori	$r13,$r13,0x858
   10984:	2980018d 	st.w	$r13,$r12,0
	video_base[COLUMN / sizeof(int) * 13 + 3] = ' XXX';
   10988:	28bfb2cc 	ld.w	$r12,$r22,-20(0xfec)
   1098c:	0290718c 	addi.w	$r12,$r12,1052(0x41c)
   10990:	1440b0ad 	lu12i.w	$r13,132485(0x20585)
   10994:	03a161ad 	ori	$r13,$r13,0x858
   10998:	2980018d 	st.w	$r13,$r12,0
	video_base[COLUMN / sizeof(int) * 13 + 4] = '    ';
   1099c:	28bfb2cc 	ld.w	$r12,$r22,-20(0xfec)
   109a0:	0290818c 	addi.w	$r12,$r12,1056(0x420)
   109a4:	1440404d 	lu12i.w	$r13,131586(0x20202)
   109a8:	038081ad 	ori	$r13,$r13,0x20
   109ac:	2980018d 	st.w	$r13,$r12,0
	video_base[COLUMN / sizeof(int) * 13 + 5] = '    ';
   109b0:	28bfb2cc 	ld.w	$r12,$r22,-20(0xfec)
   109b4:	0290918c 	addi.w	$r12,$r12,1060(0x424)
   109b8:	1440404d 	lu12i.w	$r13,131586(0x20202)
   109bc:	038081ad 	ori	$r13,$r13,0x20
   109c0:	2980018d 	st.w	$r13,$r12,0

	// row 14
	video_base[COLUMN / sizeof(int) * 14 + 0] = '    ';
   109c4:	28bfb2cc 	ld.w	$r12,$r22,-20(0xfec)
   109c8:	0291818c 	addi.w	$r12,$r12,1120(0x460)
   109cc:	1440404d 	lu12i.w	$r13,131586(0x20202)
   109d0:	038081ad 	ori	$r13,$r13,0x20
   109d4:	2980018d 	st.w	$r13,$r12,0
	video_base[COLUMN / sizeof(int) * 14 + 1] = 'XXXX';
   109d8:	28bfb2cc 	ld.w	$r12,$r22,-20(0xfec)
   109dc:	0291918c 	addi.w	$r12,$r12,1124(0x464)
   109e0:	14b0b0ad 	lu12i.w	$r13,361861(0x58585)
   109e4:	03a161ad 	ori	$r13,$r13,0x858
   109e8:	2980018d 	st.w	$r13,$r12,0
	video_base[COLUMN / sizeof(int) * 14 + 2] = 'XXXX';
   109ec:	28bfb2cc 	ld.w	$r12,$r22,-20(0xfec)
   109f0:	0291a18c 	addi.w	$r12,$r12,1128(0x468)
   109f4:	14b0b0ad 	lu12i.w	$r13,361861(0x58585)
   109f8:	03a161ad 	ori	$r13,$r13,0x858
   109fc:	2980018d 	st.w	$r13,$r12,0
	video_base[COLUMN / sizeof(int) * 14 + 3] = '  XX';
   10a00:	28bfb2cc 	ld.w	$r12,$r22,-20(0xfec)
   10a04:	0291b18c 	addi.w	$r12,$r12,1132(0x46c)
   10a08:	144040ad 	lu12i.w	$r13,131589(0x20205)
   10a0c:	03a161ad 	ori	$r13,$r13,0x858
   10a10:	2980018d 	st.w	$r13,$r12,0
	video_base[COLUMN / sizeof(int) * 14 + 4] = '    ';
   10a14:	28bfb2cc 	ld.w	$r12,$r22,-20(0xfec)
   10a18:	0291c18c 	addi.w	$r12,$r12,1136(0x470)
   10a1c:	1440404d 	lu12i.w	$r13,131586(0x20202)
   10a20:	038081ad 	ori	$r13,$r13,0x20
   10a24:	2980018d 	st.w	$r13,$r12,0
	video_base[COLUMN / sizeof(int) * 14 + 5] = '    ';
   10a28:	28bfb2cc 	ld.w	$r12,$r22,-20(0xfec)
   10a2c:	0291d18c 	addi.w	$r12,$r12,1140(0x474)
   10a30:	1440404d 	lu12i.w	$r13,131586(0x20202)
   10a34:	038081ad 	ori	$r13,$r13,0x20
   10a38:	2980018d 	st.w	$r13,$r12,0

	// row 15
	video_base[COLUMN / sizeof(int) * 15 + 0] = '    ';
   10a3c:	28bfb2cc 	ld.w	$r12,$r22,-20(0xfec)
   10a40:	0292c18c 	addi.w	$r12,$r12,1200(0x4b0)
   10a44:	1440404d 	lu12i.w	$r13,131586(0x20202)
   10a48:	038081ad 	ori	$r13,$r13,0x20
   10a4c:	2980018d 	st.w	$r13,$r12,0
	video_base[COLUMN / sizeof(int) * 15 + 1] = 'XXX ';
   10a50:	28bfb2cc 	ld.w	$r12,$r22,-20(0xfec)
   10a54:	0292d18c 	addi.w	$r12,$r12,1204(0x4b4)
   10a58:	14b0b0ad 	lu12i.w	$r13,361861(0x58585)
   10a5c:	03a081ad 	ori	$r13,$r13,0x820
   10a60:	2980018d 	st.w	$r13,$r12,0
	video_base[COLUMN / sizeof(int) * 15 + 2] = ' XX ';
   10a64:	28bfb2cc 	ld.w	$r12,$r22,-20(0xfec)
   10a68:	0292e18c 	addi.w	$r12,$r12,1208(0x4b8)
   10a6c:	1440b0ad 	lu12i.w	$r13,132485(0x20585)
   10a70:	03a081ad 	ori	$r13,$r13,0x820
   10a74:	2980018d 	st.w	$r13,$r12,0
	video_base[COLUMN / sizeof(int) * 15 + 3] = '    ';
   10a78:	28bfb2cc 	ld.w	$r12,$r22,-20(0xfec)
   10a7c:	0292f18c 	addi.w	$r12,$r12,1212(0x4bc)
   10a80:	1440404d 	lu12i.w	$r13,131586(0x20202)
   10a84:	038081ad 	ori	$r13,$r13,0x20
   10a88:	2980018d 	st.w	$r13,$r12,0
	video_base[COLUMN / sizeof(int) * 15 + 4] = '    ';
   10a8c:	28bfb2cc 	ld.w	$r12,$r22,-20(0xfec)
   10a90:	0293018c 	addi.w	$r12,$r12,1216(0x4c0)
   10a94:	1440404d 	lu12i.w	$r13,131586(0x20202)
   10a98:	038081ad 	ori	$r13,$r13,0x20
   10a9c:	2980018d 	st.w	$r13,$r12,0
	video_base[COLUMN / sizeof(int) * 15 + 5] = '    ';
   10aa0:	28bfb2cc 	ld.w	$r12,$r22,-20(0xfec)
   10aa4:	0293118c 	addi.w	$r12,$r12,1220(0x4c4)
   10aa8:	1440404d 	lu12i.w	$r13,131586(0x20202)
   10aac:	038081ad 	ori	$r13,$r13,0x20
   10ab0:	2980018d 	st.w	$r13,$r12,0

	// row 16
	video_base[COLUMN / sizeof(int) * 16 + 0] = '    ';
   10ab4:	28bfb2cc 	ld.w	$r12,$r22,-20(0xfec)
   10ab8:	0294018c 	addi.w	$r12,$r12,1280(0x500)
   10abc:	1440404d 	lu12i.w	$r13,131586(0x20202)
   10ac0:	038081ad 	ori	$r13,$r13,0x20
   10ac4:	2980018d 	st.w	$r13,$r12,0
	video_base[COLUMN / sizeof(int) * 16 + 1] = ' XX ';
   10ac8:	28bfb2cc 	ld.w	$r12,$r22,-20(0xfec)
   10acc:	0294118c 	addi.w	$r12,$r12,1284(0x504)
   10ad0:	1440b0ad 	lu12i.w	$r13,132485(0x20585)
   10ad4:	03a081ad 	ori	$r13,$r13,0x820
   10ad8:	2980018d 	st.w	$r13,$r12,0
	video_base[COLUMN / sizeof(int) * 16 + 2] = ' X  ';
   10adc:	28bfb2cc 	ld.w	$r12,$r22,-20(0xfec)
   10ae0:	0294218c 	addi.w	$r12,$r12,1288(0x508)
   10ae4:	1440b04d 	lu12i.w	$r13,132482(0x20582)
   10ae8:	038081ad 	ori	$r13,$r13,0x20
   10aec:	2980018d 	st.w	$r13,$r12,0
	video_base[COLUMN / sizeof(int) * 16 + 3] = '    ';
   10af0:	28bfb2cc 	ld.w	$r12,$r22,-20(0xfec)
   10af4:	0294318c 	addi.w	$r12,$r12,1292(0x50c)
   10af8:	1440404d 	lu12i.w	$r13,131586(0x20202)
   10afc:	038081ad 	ori	$r13,$r13,0x20
   10b00:	2980018d 	st.w	$r13,$r12,0
	video_base[COLUMN / sizeof(int) * 16 + 4] = '    ';
   10b04:	28bfb2cc 	ld.w	$r12,$r22,-20(0xfec)
   10b08:	0294418c 	addi.w	$r12,$r12,1296(0x510)
   10b0c:	1440404d 	lu12i.w	$r13,131586(0x20202)
   10b10:	038081ad 	ori	$r13,$r13,0x20
   10b14:	2980018d 	st.w	$r13,$r12,0
	video_base[COLUMN / sizeof(int) * 16 + 5] = '    ';
   10b18:	28bfb2cc 	ld.w	$r12,$r22,-20(0xfec)
   10b1c:	0294518c 	addi.w	$r12,$r12,1300(0x514)
   10b20:	1440404d 	lu12i.w	$r13,131586(0x20202)
   10b24:	038081ad 	ori	$r13,$r13,0x20
   10b28:	2980018d 	st.w	$r13,$r12,0

	// row 17
	video_base[COLUMN / sizeof(int) * 17 + 0] = '    ';
   10b2c:	28bfb2cc 	ld.w	$r12,$r22,-20(0xfec)
   10b30:	0295418c 	addi.w	$r12,$r12,1360(0x550)
   10b34:	1440404d 	lu12i.w	$r13,131586(0x20202)
   10b38:	038081ad 	ori	$r13,$r13,0x20
   10b3c:	2980018d 	st.w	$r13,$r12,0
	video_base[COLUMN / sizeof(int) * 17 + 1] = '  X ';
   10b40:	28bfb2cc 	ld.w	$r12,$r22,-20(0xfec)
   10b44:	0295518c 	addi.w	$r12,$r12,1364(0x554)
   10b48:	144040ad 	lu12i.w	$r13,131589(0x20205)
   10b4c:	03a081ad 	ori	$r13,$r13,0x820
   10b50:	2980018d 	st.w	$r13,$r12,0
	video_base[COLUMN / sizeof(int) * 17 + 2] = ' X  ';
   10b54:	28bfb2cc 	ld.w	$r12,$r22,-20(0xfec)
   10b58:	0295618c 	addi.w	$r12,$r12,1368(0x558)
   10b5c:	1440b04d 	lu12i.w	$r13,132482(0x20582)
   10b60:	038081ad 	ori	$r13,$r13,0x20
   10b64:	2980018d 	st.w	$r13,$r12,0
	video_base[COLUMN / sizeof(int) * 17 + 3] = '    ';
   10b68:	28bfb2cc 	ld.w	$r12,$r22,-20(0xfec)
   10b6c:	0295718c 	addi.w	$r12,$r12,1372(0x55c)
   10b70:	1440404d 	lu12i.w	$r13,131586(0x20202)
   10b74:	038081ad 	ori	$r13,$r13,0x20
   10b78:	2980018d 	st.w	$r13,$r12,0
	video_base[COLUMN / sizeof(int) * 17 + 4] = '    ';
   10b7c:	28bfb2cc 	ld.w	$r12,$r22,-20(0xfec)
   10b80:	0295818c 	addi.w	$r12,$r12,1376(0x560)
   10b84:	1440404d 	lu12i.w	$r13,131586(0x20202)
   10b88:	038081ad 	ori	$r13,$r13,0x20
   10b8c:	2980018d 	st.w	$r13,$r12,0
	video_base[COLUMN / sizeof(int) * 17 + 5] = '    ';
   10b90:	28bfb2cc 	ld.w	$r12,$r22,-20(0xfec)
   10b94:	0295918c 	addi.w	$r12,$r12,1380(0x564)
   10b98:	1440404d 	lu12i.w	$r13,131586(0x20202)
   10b9c:	038081ad 	ori	$r13,$r13,0x20
   10ba0:	2980018d 	st.w	$r13,$r12,0

	// row 18
	video_base[COLUMN / sizeof(int) * 18 + 0] = '    ';
   10ba4:	28bfb2cc 	ld.w	$r12,$r22,-20(0xfec)
   10ba8:	0296818c 	addi.w	$r12,$r12,1440(0x5a0)
   10bac:	1440404d 	lu12i.w	$r13,131586(0x20202)
   10bb0:	038081ad 	ori	$r13,$r13,0x20
   10bb4:	2980018d 	st.w	$r13,$r12,0
	video_base[COLUMN / sizeof(int) * 18 + 1] = ' XX ';
   10bb8:	28bfb2cc 	ld.w	$r12,$r22,-20(0xfec)
   10bbc:	0296918c 	addi.w	$r12,$r12,1444(0x5a4)
   10bc0:	1440b0ad 	lu12i.w	$r13,132485(0x20585)
   10bc4:	03a081ad 	ori	$r13,$r13,0x820
   10bc8:	2980018d 	st.w	$r13,$r12,0
	video_base[COLUMN / sizeof(int) * 18 + 2] = 'XX  ';
   10bcc:	28bfb2cc 	ld.w	$r12,$r22,-20(0xfec)
   10bd0:	0296a18c 	addi.w	$r12,$r12,1448(0x5a8)
   10bd4:	14b0b04d 	lu12i.w	$r13,361858(0x58582)
   10bd8:	038081ad 	ori	$r13,$r13,0x20
   10bdc:	2980018d 	st.w	$r13,$r12,0
	video_base[COLUMN / sizeof(int) * 18 + 3] = '    ';
   10be0:	28bfb2cc 	ld.w	$r12,$r22,-20(0xfec)
   10be4:	0296b18c 	addi.w	$r12,$r12,1452(0x5ac)
   10be8:	1440404d 	lu12i.w	$r13,131586(0x20202)
   10bec:	038081ad 	ori	$r13,$r13,0x20
   10bf0:	2980018d 	st.w	$r13,$r12,0
	video_base[COLUMN / sizeof(int) * 18 + 4] = '    ';
   10bf4:	28bfb2cc 	ld.w	$r12,$r22,-20(0xfec)
   10bf8:	0296c18c 	addi.w	$r12,$r12,1456(0x5b0)
   10bfc:	1440404d 	lu12i.w	$r13,131586(0x20202)
   10c00:	038081ad 	ori	$r13,$r13,0x20
   10c04:	2980018d 	st.w	$r13,$r12,0
	video_base[COLUMN / sizeof(int) * 18 + 5] = '    ';
   10c08:	28bfb2cc 	ld.w	$r12,$r22,-20(0xfec)
   10c0c:	0296d18c 	addi.w	$r12,$r12,1460(0x5b4)
   10c10:	1440404d 	lu12i.w	$r13,131586(0x20202)
   10c14:	038081ad 	ori	$r13,$r13,0x20
   10c18:	2980018d 	st.w	$r13,$r12,0
}
   10c1c:	03400000 	andi	$r0,$r0,0x0
   10c20:	28807076 	ld.w	$r22,$r3,28(0x1c)
   10c24:	02808063 	addi.w	$r3,$r3,32(0x20)
   10c28:	4c000020 	jirl	$r0,$r1,0

00010c2c <memcpy_int>:
"                        "
"                        "
;

void memcpy_int (int* dst, int* src, int cnt)
{
   10c2c:	02bf4063 	addi.w	$r3,$r3,-48(0xfd0)
   10c30:	2980b076 	st.w	$r22,$r3,44(0x2c)
   10c34:	0280c076 	addi.w	$r22,$r3,48(0x30)
   10c38:	29bf72c4 	st.w	$r4,$r22,-36(0xfdc)
   10c3c:	29bf62c5 	st.w	$r5,$r22,-40(0xfd8)
   10c40:	29bf52c6 	st.w	$r6,$r22,-44(0xfd4)
	int i = 0;
   10c44:	29bfb2c0 	st.w	$r0,$r22,-20(0xfec)

	for (i = 0; i < cnt; i++)
   10c48:	29bfb2c0 	st.w	$r0,$r22,-20(0xfec)
   10c4c:	50003800 	b	56(0x38) # 10c84 <memcpy_int+0x58>
	{
		dst[i] = src[i];
   10c50:	28bfb2cc 	ld.w	$r12,$r22,-20(0xfec)
   10c54:	0040898c 	slli.w	$r12,$r12,0x2
   10c58:	28bf62cd 	ld.w	$r13,$r22,-40(0xfd8)
   10c5c:	001031ad 	add.w	$r13,$r13,$r12
   10c60:	28bfb2cc 	ld.w	$r12,$r22,-20(0xfec)
   10c64:	0040898c 	slli.w	$r12,$r12,0x2
   10c68:	28bf72ce 	ld.w	$r14,$r22,-36(0xfdc)
   10c6c:	001031cc 	add.w	$r12,$r14,$r12
   10c70:	288001ad 	ld.w	$r13,$r13,0
   10c74:	2980018d 	st.w	$r13,$r12,0
	for (i = 0; i < cnt; i++)
   10c78:	28bfb2cc 	ld.w	$r12,$r22,-20(0xfec)
   10c7c:	0280058c 	addi.w	$r12,$r12,1(0x1)
   10c80:	29bfb2cc 	st.w	$r12,$r22,-20(0xfec)
   10c84:	28bfb2cd 	ld.w	$r13,$r22,-20(0xfec)
   10c88:	28bf52cc 	ld.w	$r12,$r22,-44(0xfd4)
   10c8c:	63ffc5ac 	blt	$r13,$r12,-60(0x3ffc4) # 10c50 <memcpy_int+0x24>
	}
}
   10c90:	03400000 	andi	$r0,$r0,0x0
   10c94:	2880b076 	ld.w	$r22,$r3,44(0x2c)
   10c98:	0280c063 	addi.w	$r3,$r3,48(0x30)
   10c9c:	4c000020 	jirl	$r0,$r1,0

00010ca0 <show_img>:

//
// pos_x   4 bytes aligned, do not exceed (COLUMN - image width)
void show_img (int* video_base, int pos_row, int pos_col, char* pimg, int row, int col)
{
   10ca0:	02bec063 	addi.w	$r3,$r3,-80(0xfb0)
   10ca4:	29813061 	st.w	$r1,$r3,76(0x4c)
   10ca8:	29812076 	st.w	$r22,$r3,72(0x48)
   10cac:	02814076 	addi.w	$r22,$r3,80(0x50)
   10cb0:	29bf32c4 	st.w	$r4,$r22,-52(0xfcc)
   10cb4:	29bf22c5 	st.w	$r5,$r22,-56(0xfc8)
   10cb8:	29bf12c6 	st.w	$r6,$r22,-60(0xfc4)
   10cbc:	29bf02c7 	st.w	$r7,$r22,-64(0xfc0)
   10cc0:	29bef2c8 	st.w	$r8,$r22,-68(0xfbc)
   10cc4:	29bee2c9 	st.w	$r9,$r22,-72(0xfb8)
	int* pimg_int = (int*)pimg;
   10cc8:	28bf02cc 	ld.w	$r12,$r22,-64(0xfc0)
   10ccc:	29bfa2cc 	st.w	$r12,$r22,-24(0xfe8)
	int col_int = col / sizeof(int);
   10cd0:	28bee2cc 	ld.w	$r12,$r22,-72(0xfb8)
   10cd4:	0044898c 	srli.w	$r12,$r12,0x2
   10cd8:	29bf92cc 	st.w	$r12,$r22,-28(0xfe4)
	int* video_base_with_offset = video_base + pos_row * (COLUMN / sizeof(int)) + pos_col/sizeof(int);
   10cdc:	28bf22cd 	ld.w	$r13,$r22,-56(0xfc8)
   10ce0:	0281400c 	addi.w	$r12,$r0,80(0x50)
   10ce4:	001c31ad 	mul.w	$r13,$r13,$r12
   10ce8:	28bf12ce 	ld.w	$r14,$r22,-60(0xfc4)
   10cec:	02bff00c 	addi.w	$r12,$r0,-4(0xffc)
   10cf0:	0014b1cc 	and	$r12,$r14,$r12
   10cf4:	001031ac 	add.w	$r12,$r13,$r12
   10cf8:	28bf32cd 	ld.w	$r13,$r22,-52(0xfcc)
   10cfc:	001031ac 	add.w	$r12,$r13,$r12
   10d00:	29bf82cc 	st.w	$r12,$r22,-32(0xfe0)

	int i = 0;
   10d04:	29bfb2c0 	st.w	$r0,$r22,-20(0xfec)

	for (i = 0; i < row; i++)
   10d08:	29bfb2c0 	st.w	$r0,$r22,-20(0xfec)
   10d0c:	50005400 	b	84(0x54) # 10d60 <show_img+0xc0>
	{
		int* prow = video_base_with_offset + (COLUMN / sizeof(int) * i);
   10d10:	28bfb2cd 	ld.w	$r13,$r22,-20(0xfec)
   10d14:	0281400c 	addi.w	$r12,$r0,80(0x50)
   10d18:	001c31ac 	mul.w	$r12,$r13,$r12
   10d1c:	28bf82cd 	ld.w	$r13,$r22,-32(0xfe0)
   10d20:	001031ac 	add.w	$r12,$r13,$r12
   10d24:	29bf72cc 	st.w	$r12,$r22,-36(0xfdc)
		int* pimgrow_int = pimg_int + (col_int * i);
   10d28:	28bf92cd 	ld.w	$r13,$r22,-28(0xfe4)
   10d2c:	28bfb2cc 	ld.w	$r12,$r22,-20(0xfec)
   10d30:	001c31ac 	mul.w	$r12,$r13,$r12
   10d34:	0040898c 	slli.w	$r12,$r12,0x2
   10d38:	28bfa2cd 	ld.w	$r13,$r22,-24(0xfe8)
   10d3c:	001031ac 	add.w	$r12,$r13,$r12
   10d40:	29bf62cc 	st.w	$r12,$r22,-40(0xfd8)


		memcpy_int(prow, pimgrow_int, col_int);
   10d44:	28bf92c6 	ld.w	$r6,$r22,-28(0xfe4)
   10d48:	28bf62c5 	ld.w	$r5,$r22,-40(0xfd8)
   10d4c:	28bf72c4 	ld.w	$r4,$r22,-36(0xfdc)
   10d50:	57fedfff 	bl	-292(0xffffedc) # 10c2c <memcpy_int>
	for (i = 0; i < row; i++)
   10d54:	28bfb2cc 	ld.w	$r12,$r22,-20(0xfec)
   10d58:	0280058c 	addi.w	$r12,$r12,1(0x1)
   10d5c:	29bfb2cc 	st.w	$r12,$r22,-20(0xfec)
   10d60:	28bfb2cd 	ld.w	$r13,$r22,-20(0xfec)
   10d64:	28bef2cc 	ld.w	$r12,$r22,-68(0xfbc)
   10d68:	63ffa9ac 	blt	$r13,$r12,-88(0x3ffa8) # 10d10 <show_img+0x70>
	}
}
   10d6c:	03400000 	andi	$r0,$r0,0x0
   10d70:	28813061 	ld.w	$r1,$r3,76(0x4c)
   10d74:	28812076 	ld.w	$r22,$r3,72(0x48)
   10d78:	02814063 	addi.w	$r3,$r3,80(0x50)
   10d7c:	4c000020 	jirl	$r0,$r1,0

00010d80 <main>:

int main (void)
{
   10d80:	02bfc063 	addi.w	$r3,$r3,-16(0xff0)
   10d84:	29803061 	st.w	$r1,$r3,12(0xc)
   10d88:	29802076 	st.w	$r22,$r3,8(0x8)
   10d8c:	02804076 	addi.w	$r22,$r3,16(0x10)
	//display_dinosaur(0x10000 + 80 * 5, 0, 0);

	while(1)
	{
		//display();
		show_img((int*)0x10000, 5, 8, (char*)0x1c000f74, 19, 24);
   10d90:	02806009 	addi.w	$r9,$r0,24(0x18)
   10d94:	02804c08 	addi.w	$r8,$r0,19(0x13)
   10d98:	1438000c 	lu12i.w	$r12,114688(0x1c000)
   10d9c:	03bdd187 	ori	$r7,$r12,0xf74
   10da0:	02802006 	addi.w	$r6,$r0,8(0x8)
   10da4:	02801405 	addi.w	$r5,$r0,5(0x5)
   10da8:	14000204 	lu12i.w	$r4,16(0x10)
   10dac:	57fef7ff 	bl	-268(0xffffef4) # 10ca0 <show_img>
		delay_short();
   10db0:	57f3a3ff 	bl	-3168(0xffff3a0) # 10150 <delay_short>

		show_img((int*)0x10000, 5, 8, (char*)0x1c001140, 19, 24);
   10db4:	02806009 	addi.w	$r9,$r0,24(0x18)
   10db8:	02804c08 	addi.w	$r8,$r0,19(0x13)
   10dbc:	1438002c 	lu12i.w	$r12,114689(0x1c001)
   10dc0:	03850187 	ori	$r7,$r12,0x140
   10dc4:	02802006 	addi.w	$r6,$r0,8(0x8)
   10dc8:	02801405 	addi.w	$r5,$r0,5(0x5)
   10dcc:	14000204 	lu12i.w	$r4,16(0x10)
   10dd0:	57fed3ff 	bl	-304(0xffffed0) # 10ca0 <show_img>

		show_img((int*)0x10000, 5, 8, (char*)0x1c000da8, 19, 24);
   10dd4:	02806009 	addi.w	$r9,$r0,24(0x18)
   10dd8:	02804c08 	addi.w	$r8,$r0,19(0x13)
   10ddc:	1438000c 	lu12i.w	$r12,114688(0x1c000)
   10de0:	03b6a187 	ori	$r7,$r12,0xda8
   10de4:	02802006 	addi.w	$r6,$r0,8(0x8)
   10de8:	02801405 	addi.w	$r5,$r0,5(0x5)
   10dec:	14000204 	lu12i.w	$r4,16(0x10)
   10df0:	57feb3ff 	bl	-336(0xffffeb0) # 10ca0 <show_img>
		delay_short();
   10df4:	57f35fff 	bl	-3236(0xffff35c) # 10150 <delay_short>
		show_img((int*)0x10000, 5, 8, (char*)0x1c000f74, 19, 24);
   10df8:	53ff9bff 	b	-104(0xfffff98) # 10d90 <main+0x10>
